
calc.x:     file format elf64-x86-64


Disassembly of section .init:

0000000000001000 <_init>:
    1000:	endbr64
    1004:	sub    rsp,0x8
    1008:	mov    rax,QWORD PTR [rip+0x3fb9]        # 4fc8 <__gmon_start__@Base>
    100f:	test   rax,rax
    1012:	je     1016 <_init+0x16>
    1014:	call   rax
    1016:	add    rsp,0x8
    101a:	ret

Disassembly of section .plt:

0000000000001020 <free@plt-0x10>:
    1020:	push   QWORD PTR [rip+0x3fca]        # 4ff0 <_GLOBAL_OFFSET_TABLE_+0x8>
    1026:	jmp    QWORD PTR [rip+0x3fcc]        # 4ff8 <_GLOBAL_OFFSET_TABLE_+0x10>
    102c:	nop    DWORD PTR [rax+0x0]

0000000000001030 <free@plt>:
    1030:	jmp    QWORD PTR [rip+0x3fca]        # 5000 <free@GLIBC_2.2.5>
    1036:	push   0x0
    103b:	jmp    1020 <_init+0x20>

0000000000001040 <fread@plt>:
    1040:	jmp    QWORD PTR [rip+0x3fc2]        # 5008 <fread@GLIBC_2.2.5>
    1046:	push   0x1
    104b:	jmp    1020 <_init+0x20>

0000000000001050 <fclose@plt>:
    1050:	jmp    QWORD PTR [rip+0x3fba]        # 5010 <fclose@GLIBC_2.2.5>
    1056:	push   0x2
    105b:	jmp    1020 <_init+0x20>

0000000000001060 <__stack_chk_fail@plt>:
    1060:	jmp    QWORD PTR [rip+0x3fb2]        # 5018 <__stack_chk_fail@GLIBC_2.4>
    1066:	push   0x3
    106b:	jmp    1020 <_init+0x20>

0000000000001070 <printf@plt>:
    1070:	jmp    QWORD PTR [rip+0x3faa]        # 5020 <printf@GLIBC_2.2.5>
    1076:	push   0x4
    107b:	jmp    1020 <_init+0x20>

0000000000001080 <gettimeofday@plt>:
    1080:	jmp    QWORD PTR [rip+0x3fa2]        # 5028 <gettimeofday@GLIBC_2.2.5>
    1086:	push   0x5
    108b:	jmp    1020 <_init+0x20>

0000000000001090 <__assert_fail@plt>:
    1090:	jmp    QWORD PTR [rip+0x3f9a]        # 5030 <__assert_fail@GLIBC_2.2.5>
    1096:	push   0x6
    109b:	jmp    1020 <_init+0x20>

00000000000010a0 <memset@plt>:
    10a0:	jmp    QWORD PTR [rip+0x3f92]        # 5038 <memset@GLIBC_2.2.5>
    10a6:	push   0x7
    10ab:	jmp    1020 <_init+0x20>

00000000000010b0 <cos@plt>:
    10b0:	jmp    QWORD PTR [rip+0x3f8a]        # 5040 <cos@GLIBC_2.2.5>
    10b6:	push   0x8
    10bb:	jmp    1020 <_init+0x20>

00000000000010c0 <fputc@plt>:
    10c0:	jmp    QWORD PTR [rip+0x3f82]        # 5048 <fputc@GLIBC_2.2.5>
    10c6:	push   0x9
    10cb:	jmp    1020 <_init+0x20>

00000000000010d0 <memcmp@plt>:
    10d0:	jmp    QWORD PTR [rip+0x3f7a]        # 5050 <memcmp@GLIBC_2.2.5>
    10d6:	push   0xa
    10db:	jmp    1020 <_init+0x20>

00000000000010e0 <calloc@plt>:
    10e0:	jmp    QWORD PTR [rip+0x3f72]        # 5058 <calloc@GLIBC_2.2.5>
    10e6:	push   0xb
    10eb:	jmp    1020 <_init+0x20>

00000000000010f0 <fprintf@plt>:
    10f0:	jmp    QWORD PTR [rip+0x3f6a]        # 5060 <fprintf@GLIBC_2.2.5>
    10f6:	push   0xc
    10fb:	jmp    1020 <_init+0x20>

0000000000001100 <stat@plt>:
    1100:	jmp    QWORD PTR [rip+0x3f62]        # 5068 <stat@GLIBC_2.33>
    1106:	push   0xd
    110b:	jmp    1020 <_init+0x20>

0000000000001110 <fopen@plt>:
    1110:	jmp    QWORD PTR [rip+0x3f5a]        # 5070 <fopen@GLIBC_2.2.5>
    1116:	push   0xe
    111b:	jmp    1020 <_init+0x20>

0000000000001120 <vfprintf@plt>:
    1120:	jmp    QWORD PTR [rip+0x3f52]        # 5078 <vfprintf@GLIBC_2.2.5>
    1126:	push   0xf
    112b:	jmp    1020 <_init+0x20>

0000000000001130 <sin@plt>:
    1130:	jmp    QWORD PTR [rip+0x3f4a]        # 5080 <sin@GLIBC_2.2.5>
    1136:	push   0x10
    113b:	jmp    1020 <_init+0x20>

0000000000001140 <asin@plt>:
    1140:	jmp    QWORD PTR [rip+0x3f42]        # 5088 <asin@GLIBC_2.2.5>
    1146:	push   0x11
    114b:	jmp    1020 <_init+0x20>

0000000000001150 <exit@plt>:
    1150:	jmp    QWORD PTR [rip+0x3f3a]        # 5090 <exit@GLIBC_2.2.5>
    1156:	push   0x12
    115b:	jmp    1020 <_init+0x20>

0000000000001160 <sqrt@plt>:
    1160:	jmp    QWORD PTR [rip+0x3f32]        # 5098 <sqrt@GLIBC_2.2.5>
    1166:	push   0x13
    116b:	jmp    1020 <_init+0x20>

Disassembly of section .text:

0000000000001180 <parser_at.part.0>:
  String source;
  usize  at;
};

static
u8 *parser_at(JSON_Parser *parser)
    1180:	push   rax
{
  ASSERT(parser->at < parser->source.count, "Attempted to read past parser source");
    1181:	lea    rcx,[rip+0x2790]        # 3918 <__PRETTY_FUNCTION__.6>
    1188:	mov    edx,0x2f
    118d:	lea    rsi,[rip+0x1e70]        # 3004 <_IO_stdin_used+0x4>
    1194:	lea    rdi,[rip+0x2075]        # 3210 <_IO_stdin_used+0x210>
    119b:	call   1090 <__assert_fail@plt>

00000000000011a0 <arena_pop_to.part.0>:
  arena->next_offset = aligned_offset + size;

  return ptr;
}

void arena_pop_to(Arena *arena, isize offset)
    11a0:	push   rax
{
  ASSERT(offset < arena->next_offset,
    11a1:	lea    rcx,[rip+0x2780]        # 3928 <__PRETTY_FUNCTION__.7>
    11a8:	mov    edx,0x217
    11ad:	lea    rsi,[rip+0x1e61]        # 3015 <_IO_stdin_used+0x15>
    11b4:	lea    rdi,[rip+0x20a5]        # 3260 <_IO_stdin_used+0x260>
    11bb:	call   1090 <__assert_fail@plt>

00000000000011c0 <arena_make_backed.cold>:
  ASSERT(backing_buffer != NULL, "Backing buffer for arena must not be NULL!");
    11c0:	lea    rcx,[rip+0x2789]        # 3950 <__PRETTY_FUNCTION__.9>
    11c7:	mov    edx,0x1e5
    11cc:	lea    rsi,[rip+0x1e42]        # 3015 <_IO_stdin_used+0x15>
    11d3:	lea    rdi,[rip+0x2106]        # 32e0 <_IO_stdin_used+0x2e0>
    11da:	call   1090 <__assert_fail@plt>
  ASSERT(backing_size   != 0,    "Backing buffer size for arena must not be 0!");
    11df:	lea    rcx,[rip+0x276a]        # 3950 <__PRETTY_FUNCTION__.9>
    11e6:	mov    edx,0x1e6
    11eb:	lea    rsi,[rip+0x1e23]        # 3015 <_IO_stdin_used+0x15>
    11f2:	lea    rdi,[rip+0x2137]        # 3330 <_IO_stdin_used+0x330>
    11f9:	call   1090 <__assert_fail@plt>

00000000000011fe <arena_alloc.cold>:
  ASSERT(arena->base != NULL, "Arena memory is null");
    11fe:	lea    rcx,[rip+0x2733]        # 3938 <__PRETTY_FUNCTION__.8>
    1205:	mov    edx,0x1fe
    120a:	lea    rsi,[rip+0x1e04]        # 3015 <_IO_stdin_used+0x15>
    1211:	lea    rdi,[rip+0x2160]        # 3378 <_IO_stdin_used+0x378>
    1218:	call   1090 <__assert_fail@plt>

000000000000121d <arena_pop_to.cold>:
{
    121d:	push   rax
    121e:	call   11a0 <arena_pop_to.part.0>

0000000000001223 <arena_pop.cold>:
  // Should we zero out the memory?
  arena->next_offset = offset;
}

void arena_pop(Arena *arena, isize size)
{
    1223:	push   rax
    1224:	call   11a0 <arena_pop_to.part.0>

0000000000001229 <scratch_end.cold>:
  Scratch scratch = {.arena = arena, .offset_save = arena->next_offset};
  return scratch;
}

void scratch_end(Scratch *scratch)
{
    1229:	push   rax
    122a:	call   11a0 <arena_pop_to.part.0>

000000000000122f <get_json_token.cold>:
    122f:	call   1180 <parser_at.part.0>

0000000000001234 <json_object_to_f64.cold>:

  return result;
}

f64 json_object_to_f64(JSON_Object *object)
{
    1234:	push   rax
  ASSERT(object, "Must pass valid object to f64 conversion");
    1235:	lea    rcx,[rip+0x26c4]        # 3900 <__PRETTY_FUNCTION__.5>
    123c:	mov    edx,0x1c2
    1241:	lea    rsi,[rip+0x1dbc]        # 3004 <_IO_stdin_used+0x4>
    1248:	lea    rdi,[rip+0x22a9]        # 34f8 <_IO_stdin_used+0x4f8>
    124f:	call   1090 <__assert_fail@plt>
    1254:	cs nop WORD PTR [rax+rax*1+0x0]
    125e:	xchg   ax,ax

0000000000001260 <main>:

  return (fabs(a) - fabs(b)) <= epsilon;
}

int main(int args_count, char **args)
{
    1260:	push   r15
    1262:	push   r14
    1264:	push   r13
    1266:	push   r12
    1268:	push   rbp
    1269:	push   rbx
    126a:	sub    rsp,0x1c8
    1271:	mov    QWORD PTR [rsp+0x30],rsi
    1276:	mov    rax,QWORD PTR fs:0x28
    127f:	mov    QWORD PTR [rsp+0x1b8],rax
    1287:	xor    eax,eax
  if (args_count != DESIRED_ARG_COUNT)
    1289:	cmp    edi,0x3
    128c:	je     12cd <main+0x6d>
  {
    printf("Usage: %s [haversine_json] [solution_dump]\n", args[0]);
    128e:	mov    rsi,QWORD PTR [rsi]
    1291:	lea    rdi,[rip+0x2298]        # 3530 <_IO_stdin_used+0x530>
    1298:	xor    eax,eax
    129a:	call   1070 <printf@plt>
    return 1;
    129f:	mov    eax,0x1
  {
    arena_free(&arena);
  }

  end_profiling();
}
    12a4:	mov    rdx,QWORD PTR [rsp+0x1b8]
    12ac:	sub    rdx,QWORD PTR fs:0x28
    12b5:	jne    1d03 <main+0xaa3>
    12bb:	add    rsp,0x1c8
    12c2:	pop    rbx
    12c3:	pop    rbp
    12c4:	pop    r12
    12c6:	pop    r13
    12c8:	pop    r14
    12ca:	pop    r15
    12cc:	ret
/* rdtsc */
extern __inline unsigned long long
__attribute__((__gnu_inline__, __always_inline__, __artificial__))
__rdtsc (void)
{
  return __builtin_ia32_rdtsc ();
    12cd:	rdtsc
static Profiler g_profiler;

static
void begin_profiling()
{
  g_profiler = (Profiler)
    12cf:	xor    esi,esi
    12d1:	lea    rdi,[rip+0x3e48]        # 5120 <g_profiler>
    12d8:	shl    rdx,0x20
    12dc:	mov    rbx,rax
    12df:	or     rbx,rdx
    12e2:	mov    edx,0x28010
    12e7:	call   10a0 <memset@plt>
  Arena arena = {0};
    12ec:	xor    eax,eax
    12ee:	mov    ecx,0x8
    12f3:	lea    rdi,[rsp+0xa0]
    12fb:	rep stos DWORD PTR [rdi],eax
  arena = arena_make(GB(4));
    12fd:	mov    esi,0x1
    1302:	lea    rdi,[rsp+0x50]
    1307:	mov    QWORD PTR [rip+0x3e12],rbx        # 5120 <g_profiler>
    130e:	shl    rsi,0x20
    1312:	call   2190 <arena_make>
    1317:	movdqu xmm0,XMMWORD PTR [rsp+0x50]
    .zone_index   = zone_index,
    .old_elapsed_inclusive = g_profiler.zones[zone_index].elapsed_inclusive, // Save the original so it get overwritten in the case of children
  };

  // Push parent
  g_profiler.current_parent_zone = zone_index;
    131d:	mov    QWORD PTR [rip+0x3e00],0x5        # 5128 <g_profiler+0x8>
    1328:	movaps XMMWORD PTR [rsp+0xa0],xmm0
    1330:	movdqu xmm0,XMMWORD PTR [rsp+0x60]
    1336:	movaps XMMWORD PTR [rsp+0xb0],xmm0
    133e:	rdtsc

  // Make sure this is the last thing to run
  pass.start = read_cpu_timer();

  return pass;
    1340:	lea    rcx,[rip+0x1d39]        # 3080 <_IO_stdin_used+0x80>
    1347:	shl    rdx,0x20
    source = read_file_to_arena(&arena, args[1]);
    134b:	lea    r15,[rsp+0xa0]
    1353:	mov    QWORD PTR [rsp+0xc0],rcx
    135b:	or     rax,rdx
    135e:	mov    rdi,r15
    1361:	xor    edx,edx
    1363:	mov    QWORD PTR [rsp+0xc8],0x4
    136f:	mov    QWORD PTR [rsp+0xd0],rax
    1377:	xor    eax,eax
    1379:	mov    QWORD PTR [rsp+0xd8],rax
    1381:	mov    rax,QWORD PTR [rsp+0x30]
    1386:	mov    QWORD PTR [rsp+0xe0],0x5
    1392:	mov    rsi,QWORD PTR [rax+0x8]
    1396:	mov    QWORD PTR [rsp+0xe8],rdx
    139e:	mov    QWORD PTR [rsp+0x38],r15
    13a3:	call   22f0 <read_file_to_arena>
  PROFILE_SCOPE("read")
    13a8:	sub    rsp,0x30
    13ac:	mov    ecx,0xc
    13b1:	lea    rsi,[rsp+0xf0]
    13b9:	mov    rdi,rsp
    source = read_file_to_arena(&arena, args[1]);
    13bc:	mov    rbx,rax
    13bf:	mov    rbp,rdx
  PROFILE_SCOPE("read")
    13c2:	rep movs DWORD PTR [rdi],DWORD PTR [rsi]
    13c4:	call   1e40 <__profile_end_pass>
    .parent_index = g_profiler.current_parent_zone,
    13c9:	mov    rcx,QWORD PTR [rip+0x3d58]        # 5128 <g_profiler+0x8>
  g_profiler.current_parent_zone = zone_index;
    13d0:	mov    QWORD PTR [rip+0x3d4d],0x6        # 5128 <g_profiler+0x8>
    13db:	rdtsc
  return pass;
    13dd:	lea    rdi,[rip+0x1ca1]        # 3085 <_IO_stdin_used+0x85>
    13e4:	shl    rdx,0x20
    13e8:	mov    QWORD PTR [rsp+0x148],rcx
    max_pairs = source.count / min_pair_bytes; // Roughly, overestimate at least
    13f0:	mov    ecx,0x18
    13f5:	or     rax,rdx
    13f8:	xor    edx,edx
    13fa:	mov    QWORD PTR [rsp+0x120],rdi
    pairs = arena_calloc(&arena, max_pairs, Haversine_Pair);
    1402:	mov    rdi,r15
    1405:	movq   xmm0,rax
    max_pairs = source.count / min_pair_bytes; // Roughly, overestimate at least
    140a:	mov    rax,rbp
    140d:	movhps xmm0,QWORD PTR [rip+0x3e24]        # 5238 <g_profiler+0x118>
    1414:	mov    QWORD PTR [rsp+0x128],0xf
    1420:	div    rcx
    1423:	movaps XMMWORD PTR [rsp+0x130],xmm0
    142b:	mov    QWORD PTR [rsp+0x140],0x6
    pairs = arena_calloc(&arena, max_pairs, Haversine_Pair);
    1437:	mov    edx,0x8
    143c:	add    rsp,0x30
    1440:	mov    rsi,rax
    max_pairs = source.count / min_pair_bytes; // Roughly, overestimate at least
    1443:	mov    r12,rax
    pairs = arena_calloc(&arena, max_pairs, Haversine_Pair);
    1446:	shl    rsi,0x5
    144a:	call   2270 <arena_alloc>
  PROFILE_SCOPE("haversine alloc")
    144f:	mov    ecx,0xc
    pairs = arena_calloc(&arena, max_pairs, Haversine_Pair);
    1454:	mov    QWORD PTR [rsp+0x20],rax
  PROFILE_SCOPE("haversine alloc")
    1459:	sub    rsp,0x30
    pairs = arena_calloc(&arena, max_pairs, Haversine_Pair);
    145d:	mov    r14,rax
  PROFILE_SCOPE("haversine alloc")
    1460:	lea    rsi,[rsp+0x120]
    1468:	mov    rdi,rsp
    146b:	rep movs DWORD PTR [rdi],DWORD PTR [rsi]
    146d:	call   1e40 <__profile_end_pass>
    .parent_index = g_profiler.current_parent_zone,
    1472:	mov    rcx,QWORD PTR [rip+0x3caf]        # 5128 <g_profiler+0x8>
  g_profiler.current_parent_zone = zone_index;
    1479:	mov    QWORD PTR [rip+0x3ca4],0x3        # 5128 <g_profiler+0x8>
    1484:	rdtsc
  return pass;
    1486:	lea    rdi,[rip+0x245b]        # 38e8 <__func__.4>
    148d:	shl    rdx,0x20
    1491:	mov    QWORD PTR [rsp+0x1d8],rcx
  JSON_Parser parser =
    1499:	xor    ecx,ecx
    149b:	or     rax,rdx
    149e:	mov    QWORD PTR [rsp+0x1b0],rdi
  JSON_Object *outer = parse_json_object(arena, &parser, (String){0}, get_json_token(&parser));
    14a6:	lea    rdi,[rsp+0xb0]
  JSON_Parser parser =
    14ae:	mov    QWORD PTR [rsp+0x180],rbx
    14b6:	movq   xmm0,rax
    14bb:	movhps xmm0,QWORD PTR [rip+0x3cfe]        # 51c0 <g_profiler+0xa0>
    14c2:	mov    QWORD PTR [rsp+0x190],rcx
    14ca:	movaps XMMWORD PTR [rsp+0x1c0],xmm0
    14d2:	mov    QWORD PTR [rsp+0x1b8],0xa
    14de:	mov    QWORD PTR [rsp+0x1d0],0x3
    14ea:	mov    QWORD PTR [rsp+0x188],rbp
  JSON_Object *outer = parse_json_object(arena, &parser, (String){0}, get_json_token(&parser));
    14f2:	add    rsp,0x30
    14f6:	lea    rbx,[rsp+0x150]
    14fe:	mov    rsi,rbx
    1501:	mov    QWORD PTR [rsp+0x48],rbx
    1506:	call   2440 <get_json_token>
    150b:	sub    rsp,0x20
    150f:	mov    rsi,rbx
    1512:	xor    edx,edx
    1514:	movdqa xmm0,XMMWORD PTR [rsp+0xa0]
    151d:	mov    rax,QWORD PTR [rsp+0xb0]
    1525:	xor    ecx,ecx
    1527:	mov    rdi,r15
    152a:	movups XMMWORD PTR [rsp],xmm0
    152e:	mov    QWORD PTR [rsp+0x10],rax
    1533:	call   2a60 <parse_json_object>
  profile_end_func();
    1538:	mov    ecx,0xc
    153d:	push   rsi
  JSON_Object *outer = parse_json_object(arena, &parser, (String){0}, get_json_token(&parser));
    153e:	mov    r9,rax
  profile_end_func();
    1541:	push   rsi
    1542:	lea    rsi,[rsp+0x1b0]
    154a:	mov    rdi,rsp
    154d:	mov    QWORD PTR [rsp+0x70],rsi
    1552:	rep movs DWORD PTR [rdi],DWORD PTR [rsi]
    1554:	call   1e40 <__profile_end_pass>
  JSON_Object *pairs_object = lookup_json_object(root, String("pairs"));
    1559:	add    rsp,0x30
    155d:	mov    edx,0x5
    1562:	mov    rdi,r9
    1565:	lea    rsi,[rip+0x1b29]        # 3095 <_IO_stdin_used+0x95>
    156c:	call   1ea0 <lookup_json_object>
    for (JSON_Object *cursor = pairs_object->first_child; cursor && pair_count < max_pairs; cursor = cursor->next_sibling)
    1571:	mov    rbx,QWORD PTR [rax+0x20]
    1575:	test   rbx,rbx
    1578:	je     1c8b <main+0xa2b>
    157e:	cmp    rbp,0x17
    1582:	jbe    1c8b <main+0xa2b>
    1588:	mov    rbp,r14
    158b:	mov    r15d,0x1
    1591:	lea    r13,[rip+0x1b03]        # 309b <_IO_stdin_used+0x9b>
    1598:	nop    DWORD PTR [rax+rax*1+0x0]
    .old_elapsed_inclusive = g_profiler.zones[zone_index].elapsed_inclusive, // Save the original so it get overwritten in the case of children
    15a0:	lea    rax,[rip+0x3b79]        # 5120 <g_profiler>
    15a7:	mov    rcx,QWORD PTR [rax+0x140]
    .parent_index = g_profiler.current_parent_zone,
    15ae:	mov    rsi,QWORD PTR [rax+0x8]
  g_profiler.current_parent_zone = zone_index;
    15b2:	mov    QWORD PTR [rip+0x3b6b],0x7        # 5128 <g_profiler+0x8>
    .old_elapsed_inclusive = g_profiler.zones[zone_index].elapsed_inclusive, // Save the original so it get overwritten in the case of children
    15bd:	mov    QWORD PTR [rsp+0x8],rcx
    15c2:	rdtsc
    15c4:	shl    rdx,0x20
  return pass;
    15c8:	mov    QWORD PTR [rsp+0x1a8],rsi
          .x0 = json_object_to_f64(lookup_json_object(cursor, String("x0"))),
    15d0:	mov    rdi,rbx
    15d3:	lea    rsi,[rip+0x1acf]        # 30a9 <_IO_stdin_used+0xa9>
    15da:	or     rax,rdx
    15dd:	mov    edx,0x2
    15e2:	mov    QWORD PTR [rsp+0x180],r13
    15ea:	mov    QWORD PTR [rsp+0x188],0xd
    15f6:	movq   xmm0,rax
    15fb:	movhps xmm0,QWORD PTR [rsp+0x8]
    1600:	mov    QWORD PTR [rsp+0x1a0],0x7
    160c:	movaps XMMWORD PTR [rsp+0x190],xmm0
    1614:	call   1ea0 <lookup_json_object>
    1619:	mov    rdi,rax
    161c:	call   2be0 <json_object_to_f64>
          .y0 = json_object_to_f64(lookup_json_object(cursor, String("y0"))),
    1621:	lea    rsi,[rip+0x1a84]        # 30ac <_IO_stdin_used+0xac>
    1628:	mov    edx,0x2
    162d:	mov    rdi,rbx
          .x0 = json_object_to_f64(lookup_json_object(cursor, String("x0"))),
    1630:	movsd  QWORD PTR [rsp+0x8],xmm0
          .y0 = json_object_to_f64(lookup_json_object(cursor, String("y0"))),
    1636:	call   1ea0 <lookup_json_object>
    163b:	mov    rdi,rax
    163e:	call   2be0 <json_object_to_f64>
    1643:	movsd  xmm1,QWORD PTR [rsp+0x8]
          .x1 = json_object_to_f64(lookup_json_object(cursor, String("x1"))),
    1649:	mov    edx,0x2
    164e:	mov    rdi,rbx
    1651:	lea    rsi,[rip+0x1a57]        # 30af <_IO_stdin_used+0xaf>
    1658:	unpcklpd xmm1,xmm0
    165c:	movaps XMMWORD PTR [rsp+0x10],xmm1
    1661:	call   1ea0 <lookup_json_object>
    1666:	mov    rdi,rax
    1669:	call   2be0 <json_object_to_f64>
          .y1 = json_object_to_f64(lookup_json_object(cursor, String("y1"))),
    166e:	lea    rsi,[rip+0x1a3d]        # 30b2 <_IO_stdin_used+0xb2>
    1675:	mov    edx,0x2
    167a:	mov    rdi,rbx
          .x1 = json_object_to_f64(lookup_json_object(cursor, String("x1"))),
    167d:	movsd  QWORD PTR [rsp+0x8],xmm0
          .y1 = json_object_to_f64(lookup_json_object(cursor, String("y1"))),
    1683:	call   1ea0 <lookup_json_object>
    1688:	mov    rdi,rax
    168b:	call   2be0 <json_object_to_f64>
        pairs[pair_count] = pair;
    1690:	movsd  xmm4,QWORD PTR [rsp+0x8]
    1696:	movapd xmm1,XMMWORD PTR [rsp+0x10]
      PROFILE_SCOPE("child convert")
    169c:	sub    rsp,0x30
        pairs[pair_count] = pair;
    16a0:	unpcklpd xmm4,xmm0
    16a4:	movups XMMWORD PTR [rbp+0x0],xmm1
      PROFILE_SCOPE("child convert")
    16a8:	movdqa xmm0,XMMWORD PTR [rsp+0x1b0]
        pairs[pair_count] = pair;
    16b1:	movups XMMWORD PTR [rbp+0x10],xmm4
      PROFILE_SCOPE("child convert")
    16b5:	movups XMMWORD PTR [rsp],xmm0
    16b9:	movdqa xmm0,XMMWORD PTR [rsp+0x1c0]
    16c2:	movups XMMWORD PTR [rsp+0x10],xmm0
    16c7:	movdqa xmm0,XMMWORD PTR [rsp+0x1d0]
    16d0:	movups XMMWORD PTR [rsp+0x20],xmm0
    16d5:	call   1e40 <__profile_end_pass>
    for (JSON_Object *cursor = pairs_object->first_child; cursor && pair_count < max_pairs; cursor = cursor->next_sibling)
    16da:	mov    rbx,QWORD PTR [rbx+0x28]
    16de:	add    rsp,0x30
    16e2:	mov    rsi,r15
    16e5:	test   rbx,rbx
    16e8:	setne  dl
    16eb:	cmp    r15,r12
    16ee:	setb   al
    16f1:	add    r15,0x1
    16f5:	add    rbp,0x20
    16f9:	test   dl,al
    16fb:	jne    15a0 <main+0x340>
    .parent_index = g_profiler.current_parent_zone,
    1701:	mov    rdi,QWORD PTR [rip+0x3a20]        # 5128 <g_profiler+0x8>
        pair_count += 1;
    1708:	mov    ebx,esi
  g_profiler.current_parent_zone = zone_index;
    170a:	mov    QWORD PTR [rip+0x3a13],0x8        # 5128 <g_profiler+0x8>
    1715:	rdtsc
  return pass;
    1717:	lea    rcx,[rip+0x1997]        # 30b5 <_IO_stdin_used+0xb5>
    171e:	mov    rbp,QWORD PTR [rsp+0x20]
    1723:	shl    rdx,0x20
    1727:	shl    rsi,0x5
    172b:	mov    QWORD PTR [rsp+0x120],rcx
    1733:	mov    QWORD PTR [rsp+0x148],rdi
    173b:	or     rax,rdx
    for (usize i = 0; i < pair_count; i++)
    173e:	add    rbp,rsi
  f64 sum = 0.0;
    1741:	mov    QWORD PTR [rsp+0x8],0x0
    174a:	movq   xmm0,rax
    174f:	movhps xmm0,QWORD PTR [rip+0x3b32]        # 5288 <g_profiler+0x168>
    1756:	mov    QWORD PTR [rsp+0x128],0x3
    1762:	mov    QWORD PTR [rsp+0x140],0x8
    176e:	movaps XMMWORD PTR [rsp+0x130],xmm0
    1776:	cs nop WORD PTR [rax+rax*1+0x0]
      f64 result = reference_haversine(pairs[i].x0,pairs[i].y0,pairs[i].x1,pairs[i].y1, earth_radius);
    1780:	movsd  xmm1,QWORD PTR [r14+0x18]
    1786:	movsd  xmm3,QWORD PTR [r14+0x8]
  f64 lat1 = y0;
  f64 lat2 = y1;
  f64 lon1 = x0;
  f64 lon2 = x1;

  f64 d_lat = to_radians(lat2 - lat1);
    178c:	movapd xmm0,xmm1
    1790:	movsd  QWORD PTR [rsp+0x20],xmm1
    1796:	subsd  xmm0,xmm3
  return degrees / PI;
    179a:	divsd  xmm0,QWORD PTR [rip+0x21ee]        # 3990 <__PRETTY_FUNCTION__.9+0x40>
  f64 d_lat = to_radians(lat2 - lat1);
    17a2:	movsd  QWORD PTR [rsp+0x10],xmm3
  f64 d_lon = to_radians(lon2 - lon1);
  lat1 = to_radians(lat1);
  lat2 = to_radians(lat2);

  f64 a = square(sin(d_lat/2.0)) + cos(lat1) * cos(lat2) * square(sin(d_lon/2.0));
    17a8:	mulsd  xmm0,QWORD PTR [rip+0x21e8]        # 3998 <__PRETTY_FUNCTION__.9+0x48>
    17b0:	call   1130 <sin@plt>
  return degrees / PI;
    17b5:	movsd  xmm3,QWORD PTR [rsp+0x10]
    17bb:	divsd  xmm3,QWORD PTR [rip+0x21cd]        # 3990 <__PRETTY_FUNCTION__.9+0x40>
  f64 a = square(sin(d_lat/2.0)) + cos(lat1) * cos(lat2) * square(sin(d_lon/2.0));
    17c3:	movsd  QWORD PTR [rsp+0x28],xmm0
  return degrees / PI;
    17c9:	movapd xmm0,xmm3
  f64 a = square(sin(d_lat/2.0)) + cos(lat1) * cos(lat2) * square(sin(d_lon/2.0));
    17cd:	call   10b0 <cos@plt>
  return degrees / PI;
    17d2:	movsd  xmm1,QWORD PTR [rsp+0x20]
    17d8:	divsd  xmm1,QWORD PTR [rip+0x21b0]        # 3990 <__PRETTY_FUNCTION__.9+0x40>
  f64 a = square(sin(d_lat/2.0)) + cos(lat1) * cos(lat2) * square(sin(d_lon/2.0));
    17e0:	movsd  QWORD PTR [rsp+0x10],xmm0
  return degrees / PI;
    17e6:	movapd xmm0,xmm1
  f64 a = square(sin(d_lat/2.0)) + cos(lat1) * cos(lat2) * square(sin(d_lon/2.0));
    17ea:	call   10b0 <cos@plt>
    17ef:	movsd  QWORD PTR [rsp+0x20],xmm0
  f64 d_lon = to_radians(lon2 - lon1);
    17f5:	movsd  xmm0,QWORD PTR [r14+0x10]
    17fb:	subsd  xmm0,QWORD PTR [r14]
  return degrees / PI;
    1800:	divsd  xmm0,QWORD PTR [rip+0x2188]        # 3990 <__PRETTY_FUNCTION__.9+0x40>
  f64 a = square(sin(d_lat/2.0)) + cos(lat1) * cos(lat2) * square(sin(d_lon/2.0));
    1808:	mulsd  xmm0,QWORD PTR [rip+0x2188]        # 3998 <__PRETTY_FUNCTION__.9+0x48>
    1810:	call   1130 <sin@plt>
    1815:	movsd  xmm1,QWORD PTR [rsp+0x10]
    181b:	mulsd  xmm1,QWORD PTR [rsp+0x20]
    1821:	pxor   xmm7,xmm7
  return x * x;
    1825:	mulsd  xmm0,xmm0
    1829:	movsd  xmm2,QWORD PTR [rsp+0x28]
    182f:	mulsd  xmm2,xmm2
  f64 a = square(sin(d_lat/2.0)) + cos(lat1) * cos(lat2) * square(sin(d_lon/2.0));
    1833:	mulsd  xmm0,xmm1
    1837:	addsd  xmm0,xmm2
  f64 c = 2.0 * asin(sqrt(a));
    183b:	ucomisd xmm7,xmm0
    183f:	ja     1cf9 <main+0xa99>
    1845:	sqrtsd xmm0,xmm0
    1849:	call   1140 <asin@plt>
    for (usize i = 0; i < pair_count; i++)
    184e:	add    r14,0x20
    1852:	addsd  xmm0,xmm0

  f64 result = sphere_radius * c;
    1856:	mulsd  xmm0,QWORD PTR [rip+0x2142]        # 39a0 <__PRETTY_FUNCTION__.9+0x50>
      sum += result;
    185e:	addsd  xmm0,QWORD PTR [rsp+0x8]
    1864:	movsd  QWORD PTR [rsp+0x8],xmm0
    for (usize i = 0; i < pair_count; i++)
    186a:	cmp    rbp,r14
    186d:	jne    1780 <main+0x520>
  PROFILE_SCOPE("sum")
    1873:	sub    rsp,0x30
    1877:	mov    ecx,0xc
    187c:	lea    rsi,[rsp+0x150]
    1884:	mov    rdi,rsp
    1887:	rep movs DWORD PTR [rdi],DWORD PTR [rsi]
    1889:	call   1e40 <__profile_end_pass>
    .parent_index = g_profiler.current_parent_zone,
    188e:	mov    rcx,QWORD PTR [rip+0x3893]        # 5128 <g_profiler+0x8>
  g_profiler.current_parent_zone = zone_index;
    1895:	mov    QWORD PTR [rip+0x3888],0x9        # 5128 <g_profiler+0x8>
    18a0:	rdtsc
  return pass;
    18a2:	lea    rdi,[rip+0x1810]        # 30b9 <_IO_stdin_used+0xb9>
    18a9:	shl    rdx,0x20
    18ad:	mov    QWORD PTR [rsp+0x180],rdi
    18b5:	or     rax,rdx
    18b8:	mov    QWORD PTR [rsp+0x1a8],rcx
    18c0:	mov    QWORD PTR [rsp+0x188],0x5
    18cc:	movq   xmm0,rax
    18d1:	movhps xmm0,QWORD PTR [rip+0x39d8]        # 52b0 <g_profiler+0x190>
    18d8:	mov    QWORD PTR [rsp+0x1a0],0x9
    18e4:	movaps XMMWORD PTR [rsp+0x190],xmm0
    String solution_dump = read_file_to_arena(&arena, args[2]);
    18ec:	mov    rax,QWORD PTR [rsp+0x60]
    18f1:	add    rsp,0x30
    18f5:	mov    rdi,QWORD PTR [rsp+0x38]
    18fa:	mov    rsi,QWORD PTR [rax+0x10]
    18fe:	call   22f0 <read_file_to_arena>
    if (solution_dump.count >= sizeof(f64) + sizeof(i32))
    1903:	cmp    rdx,0xb
    1907:	jbe    1c19 <main+0x9b9>
      i32 solution_pairs = *(i32 *)(solution_dump.data + sizeof(f64));
    190d:	mov    r8d,DWORD PTR [rax+0x8]
      if (solution_pairs == pair_count)
    1911:	cmp    r8d,ebx
    1914:	jne    1c3d <main+0x9dd>
    sum /= pair_count;
    191a:	movsd  xmm1,QWORD PTR [rsp+0x8]
    1920:	pxor   xmm0,xmm0
      f64 solution_sum   = *(f64 *)solution_dump.data;
    1924:	movsd  xmm2,QWORD PTR [rax]
    sum /= pair_count;
    1928:	cvtsi2sd xmm0,ebx
    192c:	divsd  xmm1,xmm0
  return (fabs(a) - fabs(b)) <= epsilon;
    1930:	movapd xmm0,xmm2
    1934:	andpd  xmm0,XMMWORD PTR [rip+0x2084]        # 39c0 <__PRETTY_FUNCTION__.9+0x70>
    193c:	movapd xmm3,xmm1
    1940:	andpd  xmm3,XMMWORD PTR [rip+0x2078]        # 39c0 <__PRETTY_FUNCTION__.9+0x70>
    1948:	subsd  xmm0,xmm3
        if (epsilon_equal(solution_sum, sum))
    194c:	movsd  xmm3,QWORD PTR [rip+0x2054]        # 39a8 <__PRETTY_FUNCTION__.9+0x58>
    1954:	comisd xmm3,xmm0
          LOG_INFO("Solutions (solution: %f, calculated: %f) match! :)", solution_sum, sum);
    1958:	movapd xmm0,xmm2
        if (epsilon_equal(solution_sum, sum))
    195c:	jae    1ba3 <main+0x943>
          LOG_ERROR("Solution sum (%f) does not match calculated sum (%f)", solution_sum, sum);
    1962:	mov    edx,0x68
    1967:	mov    edi,0x1
    196c:	mov    eax,0x2
    1971:	lea    rcx,[rip+0x1c70]        # 35e8 <_IO_stdin_used+0x5e8>
    1978:	lea    rsi,[rip+0x1740]        # 30bf <_IO_stdin_used+0xbf>
    197f:	call   1ff0 <log_message>
  PROFILE_SCOPE("check")
    1984:	sub    rsp,0x30
    1988:	mov    ecx,0xc
    198d:	mov    rsi,QWORD PTR [rsp+0x78]
    1992:	mov    rdi,rsp
    1995:	rep movs DWORD PTR [rdi],DWORD PTR [rsi]
    1997:	call   1e40 <__profile_end_pass>
    .parent_index = g_profiler.current_parent_zone,
    199c:	mov    rcx,QWORD PTR [rip+0x3785]        # 5128 <g_profiler+0x8>
  g_profiler.current_parent_zone = zone_index;
    19a3:	mov    QWORD PTR [rip+0x377a],0xa        # 5128 <g_profiler+0x8>
    19ae:	rdtsc
  return pass;
    19b0:	lea    rdi,[rip+0x171d]        # 30d4 <_IO_stdin_used+0xd4>
    19b7:	shl    rdx,0x20
    19bb:	mov    QWORD PTR [rsp+0x1d8],rcx
    19c3:	or     rax,rdx
    19c6:	mov    QWORD PTR [rsp+0x1b0],rdi
    19ce:	movq   xmm0,rax
    19d3:	mov    QWORD PTR [rsp+0x1b8],0x4
    19df:	movhps xmm0,QWORD PTR [rip+0x38f2]        # 52d8 <g_profiler+0x1b8>
    19e6:	mov    QWORD PTR [rsp+0x1d0],0xa
    19f2:	movaps XMMWORD PTR [rsp+0x1c0],xmm0
    arena_free(&arena);
    19fa:	mov    rdi,QWORD PTR [rsp+0x68]
    19ff:	add    rsp,0x30
    1a03:	call   2230 <arena_free>
  PROFILE_SCOPE("free")
    1a08:	sub    rsp,0x30
    1a0c:	mov    ecx,0xc
    1a11:	mov    rsi,QWORD PTR [rsp+0x70]
    1a16:	mov    rdi,rsp
    1a19:	rep movs DWORD PTR [rdi],DWORD PTR [rsi]
    1a1b:	call   1e40 <__profile_end_pass>
    1a20:	rdtsc
    1a22:	shl    rdx,0x20
  if (total_delta)
    1a26:	add    rsp,0x30
    1a2a:	or     rax,rdx
    1a2d:	sub    rax,QWORD PTR [rip+0x36ec]        # 5120 <g_profiler>
    1a34:	mov    rbx,rax
    1a37:	jne    1a40 <main+0x7e0>
    1a39:	xor    eax,eax
    1a3b:	jmp    12a4 <main+0x44>
    1a40:	rdtsc
  gettimeofday(&value, 0);
    1a42:	xor    esi,esi
    1a44:	lea    r12,[rsp+0x70]
    1a49:	mov    r13,rax
    1a4c:	shl    rdx,0x20
    1a50:	mov    rdi,r12
    1a53:	or     r13,rdx
    1a56:	call   1080 <gettimeofday@plt>
  u64 result = get_os_timer_freq() * value.tv_sec + value.tv_usec;
    1a5b:	imul   rbp,QWORD PTR [rsp+0x70],0xf4240
    1a64:	add    rbp,QWORD PTR [rsp+0x78]
  while (os_delta < os_wait_time)
    1a69:	nop    DWORD PTR [rax+0x0]
  gettimeofday(&value, 0);
    1a70:	xor    esi,esi
    1a72:	mov    rdi,r12
    1a75:	call   1080 <gettimeofday@plt>
  u64 result = get_os_timer_freq() * value.tv_sec + value.tv_usec;
    1a7a:	imul   rcx,QWORD PTR [rsp+0x70],0xf4240
    1a83:	add    rcx,QWORD PTR [rsp+0x78]
    os_delta = os_end - os_start;
    1a88:	sub    rcx,rbp
  while (os_delta < os_wait_time)
    1a8b:	cmp    rcx,0x1869f
    1a92:	jbe    1a70 <main+0x810>
    1a94:	rdtsc
    1a96:	shl    rdx,0x20
    1a9a:	or     rax,rdx
  cpu_frequency = os_frequency * cpu_delta / os_delta;
    1a9d:	xor    edx,edx
  u64 cpu_delta = cpu_end - cpu_start;
    1a9f:	sub    rax,r13
  cpu_frequency = os_frequency * cpu_delta / os_delta;
    1aa2:	imul   rax,rax,0xf4240
    1aa9:	div    rcx
    printf("[PROFILE] Total duration: %lu (%fms @ CPU Frequency: %u)\n", total_delta, (f64)total_delta / (f64)freq * 1000.0, freq);
    1aac:	test   rbx,rbx
    1aaf:	js     1c64 <main+0xa04>
    1ab5:	pxor   xmm5,xmm5
    1ab9:	cvtsi2sd xmm5,rbx
    1abe:	movsd  QWORD PTR [rsp+0x8],xmm5
    1ac4:	movsd  xmm0,QWORD PTR [rsp+0x8]
    1aca:	pxor   xmm1,xmm1
    1ace:	mov    rdx,rax
    1ad1:	mov    rsi,rbx
    1ad4:	cvtsi2sd xmm1,rax
    1ad9:	lea    rdi,[rip+0x1b78]        # 3658 <_IO_stdin_used+0x658>
    1ae0:	mov    eax,0x1
    1ae5:	lea    rbx,[rip+0x3644]        # 5130 <g_profiler+0x10>
    1aec:	divsd  xmm0,xmm1
    1af0:	lea    rbp,[rbx+0x28000]
    1af7:	mulsd  xmm0,QWORD PTR [rip+0x1eb1]        # 39b0 <__PRETTY_FUNCTION__.9+0x60>
    1aff:	call   1070 <printf@plt>
    for (usize i = 0; i < STATIC_ARRAY_COUNT(g_profiler.zones); i++)
    1b04:	jmp    1b1d <main+0x8bd>
    1b06:	cs nop WORD PTR [rax+rax*1+0x0]
    1b10:	add    rbx,0x28
    1b14:	cmp    rbx,rbp
    1b17:	je     1a39 <main+0x7d9>
      if (zone->elapsed_inclusive)
    1b1d:	cmp    QWORD PTR [rbx+0x18],0x0
    1b22:	je     1b10 <main+0x8b0>
        f64 percent = ((f64)zone->elapsed_exclusive / (f64)total_delta) * 100.0;
    1b24:	mov    r8,QWORD PTR [rbx+0x10]
    1b28:	test   r8,r8
    1b2b:	js     1bd0 <main+0x970>
    1b31:	pxor   xmm0,xmm0
    1b35:	cvtsi2sd xmm0,r8
    1b3a:	divsd  xmm0,QWORD PTR [rsp+0x8]
        printf("[PROFILE] Zone '%.*s':\n"
    1b40:	mov    esi,DWORD PTR [rbx+0x8]
    1b43:	mov    rcx,QWORD PTR [rbx+0x20]
    1b47:	lea    rdi,[rip+0x1b4a]        # 3698 <_IO_stdin_used+0x698>
        f64 percent = ((f64)zone->elapsed_exclusive / (f64)total_delta) * 100.0;
    1b4e:	mulsd  xmm0,QWORD PTR [rip+0x1e62]        # 39b8 <__PRETTY_FUNCTION__.9+0x68>
        printf("[PROFILE] Zone '%.*s':\n"
    1b56:	mov    rdx,QWORD PTR [rbx]
    1b59:	mov    eax,0x1
    1b5e:	call   1070 <printf@plt>
        if (zone->elapsed_exclusive != zone->elapsed_inclusive)
    1b63:	mov    rsi,QWORD PTR [rbx+0x18]
    1b67:	cmp    QWORD PTR [rbx+0x10],rsi
    1b6b:	je     1b10 <main+0x8b0>
          f64 with_children_percent = ((f64)zone->elapsed_inclusive / (f64)total_delta) * 100.0;
    1b6d:	test   rsi,rsi
    1b70:	js     1bf8 <main+0x998>
    1b76:	pxor   xmm0,xmm0
    1b7a:	cvtsi2sd xmm0,rsi
    1b7f:	divsd  xmm0,QWORD PTR [rsp+0x8]
    1b85:	mulsd  xmm0,QWORD PTR [rip+0x1e2b]        # 39b8 <__PRETTY_FUNCTION__.9+0x68>
          printf("  Inclusive Timestamp Cycles: %lu (%.4f%%)\n", zone->elapsed_inclusive, with_children_percent);
    1b8d:	mov    eax,0x1
    1b92:	lea    rdi,[rip+0x1b57]        # 36f0 <_IO_stdin_used+0x6f0>
    1b99:	call   1070 <printf@plt>
    1b9e:	jmp    1b10 <main+0x8b0>
          LOG_INFO("Solutions (solution: %f, calculated: %f) match! :)", solution_sum, sum);
    1ba3:	mov    edx,0x64
    1ba8:	mov    edi,0x3
    1bad:	mov    eax,0x2
    1bb2:	lea    rcx,[rip+0x1a67]        # 3620 <_IO_stdin_used+0x620>
    1bb9:	lea    rsi,[rip+0x14ff]        # 30bf <_IO_stdin_used+0xbf>
    1bc0:	call   1ff0 <log_message>
    1bc5:	jmp    1984 <main+0x724>
    1bca:	nop    WORD PTR [rax+rax*1+0x0]
        f64 percent = ((f64)zone->elapsed_exclusive / (f64)total_delta) * 100.0;
    1bd0:	mov    rax,r8
    1bd3:	mov    rdx,r8
    1bd6:	pxor   xmm0,xmm0
    1bda:	shr    rax,1
    1bdd:	and    edx,0x1
    1be0:	or     rax,rdx
    1be3:	cvtsi2sd xmm0,rax
    1be8:	addsd  xmm0,xmm0
    1bec:	jmp    1b3a <main+0x8da>
    1bf1:	nop    DWORD PTR [rax+0x0]
          f64 with_children_percent = ((f64)zone->elapsed_inclusive / (f64)total_delta) * 100.0;
    1bf8:	mov    rax,rsi
    1bfb:	mov    rdx,rsi
    1bfe:	pxor   xmm0,xmm0
    1c02:	shr    rax,1
    1c05:	and    edx,0x1
    1c08:	or     rax,rdx
    1c0b:	cvtsi2sd xmm0,rax
    1c10:	addsd  xmm0,xmm0
    1c14:	jmp    1b7f <main+0x91f>
      LOG_ERROR("Solution dump is not large enough to hold actual solutions");
    1c19:	lea    rcx,[rip+0x1940]        # 3560 <_IO_stdin_used+0x560>
    1c20:	mov    edx,0x72
    1c25:	lea    rsi,[rip+0x1493]        # 30bf <_IO_stdin_used+0xbf>
    1c2c:	xor    eax,eax
    1c2e:	mov    edi,0x1
    1c33:	call   1ff0 <log_message>
    1c38:	jmp    1984 <main+0x724>
        LOG_ERROR("Solution pair counts (%d) and parsed pair count (%d) do not match", solution_pairs, pair_count);
    1c3d:	mov    r9d,ebx
    1c40:	mov    edx,0x6d
    1c45:	mov    edi,0x1
    1c4a:	xor    eax,eax
    1c4c:	lea    rcx,[rip+0x194d]        # 35a0 <_IO_stdin_used+0x5a0>
    1c53:	lea    rsi,[rip+0x1465]        # 30bf <_IO_stdin_used+0xbf>
    1c5a:	call   1ff0 <log_message>
    1c5f:	jmp    1984 <main+0x724>
    printf("[PROFILE] Total duration: %lu (%fms @ CPU Frequency: %u)\n", total_delta, (f64)total_delta / (f64)freq * 1000.0, freq);
    1c64:	mov    rdx,rbx
    1c67:	mov    rcx,rbx
    1c6a:	pxor   xmm0,xmm0
    1c6e:	shr    rdx,1
    1c71:	and    ecx,0x1
    1c74:	or     rdx,rcx
    1c77:	cvtsi2sd xmm0,rdx
    1c7c:	addsd  xmm0,xmm0
    1c80:	movsd  QWORD PTR [rsp+0x8],xmm0
    1c86:	jmp    1ac4 <main+0x864>
    .parent_index = g_profiler.current_parent_zone,
    1c8b:	mov    rcx,QWORD PTR [rip+0x3496]        # 5128 <g_profiler+0x8>
  g_profiler.current_parent_zone = zone_index;
    1c92:	mov    QWORD PTR [rip+0x348b],0x8        # 5128 <g_profiler+0x8>
    1c9d:	rdtsc
  return pass;
    1c9f:	lea    rdi,[rip+0x140f]        # 30b5 <_IO_stdin_used+0xb5>
    1ca6:	xor    ebx,ebx
    1ca8:	shl    rdx,0x20
    1cac:	mov    QWORD PTR [rsp+0x120],rdi
    1cb4:	or     rax,rdx
    1cb7:	mov    QWORD PTR [rsp+0x148],rcx
  f64 sum = 0.0;
    1cbf:	mov    QWORD PTR [rsp+0x8],0x0
    1cc8:	movq   xmm0,rax
    1ccd:	movhps xmm0,QWORD PTR [rip+0x35b4]        # 5288 <g_profiler+0x168>
    1cd4:	mov    QWORD PTR [rsp+0x128],0x3
    1ce0:	mov    QWORD PTR [rsp+0x140],0x8
    1cec:	movaps XMMWORD PTR [rsp+0x130],xmm0
    1cf4:	jmp    1873 <main+0x613>
  f64 c = 2.0 * asin(sqrt(a));
    1cf9:	call   1160 <sqrt@plt>
    1cfe:	jmp    1849 <main+0x5e9>
}
    1d03:	call   1060 <__stack_chk_fail@plt>
    1d08:	nop    DWORD PTR [rax+rax*1+0x0]

0000000000001d10 <_start>:
    1d10:	endbr64
    1d14:	xor    ebp,ebp
    1d16:	mov    r9,rdx
    1d19:	pop    rsi
    1d1a:	mov    rdx,rsp
    1d1d:	and    rsp,0xfffffffffffffff0
    1d21:	push   rax
    1d22:	push   rsp
    1d23:	xor    r8d,r8d
    1d26:	xor    ecx,ecx
    1d28:	lea    rdi,[rip+0xfffffffffffff531]        # 1260 <main>
    1d2f:	call   QWORD PTR [rip+0x3283]        # 4fb8 <__libc_start_main@GLIBC_2.34>
    1d35:	hlt
    1d36:	cs nop WORD PTR [rax+rax*1+0x0]
    1d40:	lea    rdi,[rip+0x3399]        # 50e0 <stdout@GLIBC_2.2.5>
    1d47:	lea    rax,[rip+0x3392]        # 50e0 <stdout@GLIBC_2.2.5>
    1d4e:	cmp    rax,rdi
    1d51:	je     1d68 <_start+0x58>
    1d53:	mov    rax,QWORD PTR [rip+0x3266]        # 4fc0 <_ITM_deregisterTMCloneTable@Base>
    1d5a:	test   rax,rax
    1d5d:	je     1d68 <_start+0x58>
    1d5f:	jmp    rax
    1d61:	nop    DWORD PTR [rax+0x0]
    1d68:	ret
    1d69:	nop    DWORD PTR [rax+0x0]
    1d70:	lea    rdi,[rip+0x3369]        # 50e0 <stdout@GLIBC_2.2.5>
    1d77:	lea    rsi,[rip+0x3362]        # 50e0 <stdout@GLIBC_2.2.5>
    1d7e:	sub    rsi,rdi
    1d81:	mov    rax,rsi
    1d84:	shr    rsi,0x3f
    1d88:	sar    rax,0x3
    1d8c:	add    rsi,rax
    1d8f:	sar    rsi,1
    1d92:	je     1da8 <_start+0x98>
    1d94:	mov    rax,QWORD PTR [rip+0x3235]        # 4fd0 <_ITM_registerTMCloneTable@Base>
    1d9b:	test   rax,rax
    1d9e:	je     1da8 <_start+0x98>
    1da0:	jmp    rax
    1da2:	nop    WORD PTR [rax+rax*1+0x0]
    1da8:	ret
    1da9:	nop    DWORD PTR [rax+0x0]
    1db0:	endbr64
    1db4:	cmp    BYTE PTR [rip+0x334d],0x0        # 5108 <stderr@GLIBC_2.2.5+0x8>
    1dbb:	jne    1df0 <_start+0xe0>
    1dbd:	push   rbp
    1dbe:	cmp    QWORD PTR [rip+0x3212],0x0        # 4fd8 <__cxa_finalize@GLIBC_2.2.5>
    1dc6:	mov    rbp,rsp
    1dc9:	je     1dd8 <_start+0xc8>
    1dcb:	mov    rdi,QWORD PTR [rip+0x32d6]        # 50a8 <__dso_handle>
    1dd2:	call   QWORD PTR [rip+0x3200]        # 4fd8 <__cxa_finalize@GLIBC_2.2.5>
    1dd8:	call   1d40 <_start+0x30>
    1ddd:	mov    BYTE PTR [rip+0x3324],0x1        # 5108 <stderr@GLIBC_2.2.5+0x8>
    1de4:	pop    rbp
    1de5:	ret
    1de6:	cs nop WORD PTR [rax+rax*1+0x0]
    1df0:	ret
    1df1:	nop    DWORD PTR [rax+0x0]
    1df5:	data16 cs nop WORD PTR [rax+rax*1+0x0]
    1e00:	endbr64
    1e04:	jmp    1d70 <_start+0x60>
    1e09:	cs nop WORD PTR [rax+rax*1+0x0]
    1e13:	cs nop WORD PTR [rax+rax*1+0x0]
    1e1d:	cs nop WORD PTR [rax+rax*1+0x0]
    1e27:	cs nop WORD PTR [rax+rax*1+0x0]
    1e31:	cs nop WORD PTR [rax+rax*1+0x0]
    1e3b:	nop    DWORD PTR [rax+rax*1+0x0]

0000000000001e40 <__profile_end_pass>:
}

static
void __profile_end_pass(Profile_Pass pass)
{
    1e40:	mov    r8,QWORD PTR [rsp+0x30]
    1e45:	rdtsc
  // First!
  u64 elapsed = read_cpu_timer() - pass.start;

  // Pop parent
  g_profiler.current_parent_zone = pass.parent_index;
    1e47:	lea    rdi,[rip+0x32d2]        # 5120 <g_profiler>
  u64 elapsed = read_cpu_timer() - pass.start;
    1e4e:	mov    rcx,QWORD PTR [rsp+0x18]

  Profile_Zone *current = &g_profiler.zones[pass.zone_index];
  current->elapsed_exclusive += elapsed;
  current->hit_count += 1;
  current->name = pass.name; // Stupid...
    1e53:	movdqu xmm0,XMMWORD PTR [rsp+0x8]
    1e59:	shl    rdx,0x20
  g_profiler.current_parent_zone = pass.parent_index;
    1e5d:	mov    QWORD PTR [rip+0x32c4],r8        # 5128 <g_profiler+0x8>
    1e64:	or     rax,rdx
  Profile_Zone *current = &g_profiler.zones[pass.zone_index];
    1e67:	mov    rdx,QWORD PTR [rsp+0x28]
  u64 elapsed = read_cpu_timer() - pass.start;
    1e6c:	mov    rsi,rax
  current->elapsed_exclusive += elapsed;
    1e6f:	lea    rdx,[rdx+rdx*4]
  u64 elapsed = read_cpu_timer() - pass.start;
    1e73:	sub    rsi,rcx
  current->elapsed_inclusive = pass.old_elapsed_inclusive + elapsed; // So that only the final out of potential recursive calls writes inclusive time

  // Accumulate to parent time
  Profile_Zone *parent = &g_profiler.zones[pass.parent_index];
  parent->elapsed_exclusive -= elapsed;
    1e76:	sub    rcx,rax
  current->elapsed_exclusive += elapsed;
    1e79:	add    QWORD PTR [rdi+rdx*8+0x20],rsi
  current->elapsed_inclusive = pass.old_elapsed_inclusive + elapsed; // So that only the final out of potential recursive calls writes inclusive time
    1e7e:	add    rsi,QWORD PTR [rsp+0x20]
  current->hit_count += 1;
    1e83:	add    QWORD PTR [rdi+rdx*8+0x30],0x1
  current->elapsed_inclusive = pass.old_elapsed_inclusive + elapsed; // So that only the final out of potential recursive calls writes inclusive time
    1e89:	mov    QWORD PTR [rdi+rdx*8+0x28],rsi
  current->name = pass.name; // Stupid...
    1e8e:	movups XMMWORD PTR [rdi+rdx*8+0x10],xmm0
  parent->elapsed_exclusive -= elapsed;
    1e93:	lea    rdx,[r8+r8*4]
    1e97:	add    QWORD PTR [rdi+rdx*8+0x20],rcx
}
    1e9c:	ret
    1e9d:	nop    DWORD PTR [rax]

0000000000001ea0 <lookup_json_object>:
{
    1ea0:	push   r12
    1ea2:	push   rbp
    1ea3:	mov    rbp,rdx
    1ea6:	push   rbx
    1ea7:	sub    rsp,0x30
    .parent_index = g_profiler.current_parent_zone,
    1eab:	mov    rcx,QWORD PTR [rip+0x3276]        # 5128 <g_profiler+0x8>
  g_profiler.current_parent_zone = zone_index;
    1eb2:	mov    QWORD PTR [rip+0x326b],0x4        # 5128 <g_profiler+0x8>
    1ebd:	rdtsc
    for (JSON_Object *cursor = current->first_child; cursor; cursor = cursor->next_sibling)
    1ebf:	mov    rbx,QWORD PTR [rdi+0x20]
    1ec3:	shl    rdx,0x20
  return pass;
    1ec7:	mov    QWORD PTR [rsp+0x28],rcx
    1ecc:	mov    QWORD PTR [rsp+0x8],0x12
    1ed5:	or     rax,rdx
    1ed8:	lea    rdx,[rip+0x19b1]        # 3890 <__func__.1>
    1edf:	movq   xmm0,rax
    1ee4:	mov    QWORD PTR [rsp],rdx
    1ee8:	movhps xmm0,QWORD PTR [rip+0x32f9]        # 51e8 <g_profiler+0xc8>
    1eef:	mov    QWORD PTR [rsp+0x20],0x4
    1ef8:	movaps XMMWORD PTR [rsp+0x10],xmm0
    1efd:	test   rbx,rbx
    1f00:	je     1f31 <lookup_json_object+0x91>
    1f02:	mov    r12,rsi
    1f05:	jmp    1f19 <lookup_json_object+0x79>
    1f07:	nop    WORD PTR [rax+rax*1+0x0]
    1f10:	mov    rbx,QWORD PTR [rbx+0x28]
    1f14:	test   rbx,rbx
    1f17:	je     1f31 <lookup_json_object+0x91>
  return a.count == b.count && memcmp(a.data, b.data, a.count) == 0;
    1f19:	cmp    rbp,QWORD PTR [rbx+0x8]
    1f1d:	jne    1f10 <lookup_json_object+0x70>
    1f1f:	mov    rsi,QWORD PTR [rbx]
    1f22:	mov    rdx,rbp
    1f25:	mov    rdi,r12
    1f28:	call   10d0 <memcmp@plt>
    1f2d:	test   eax,eax
    1f2f:	jne    1f10 <lookup_json_object+0x70>
  profile_end_func();
    1f31:	sub    rsp,0x30
    1f35:	movdqa xmm0,XMMWORD PTR [rsp+0x30]
    1f3b:	movups XMMWORD PTR [rsp],xmm0
    1f3f:	movdqa xmm0,XMMWORD PTR [rsp+0x40]
    1f45:	movups XMMWORD PTR [rsp+0x10],xmm0
    1f4a:	movdqa xmm0,XMMWORD PTR [rsp+0x50]
    1f50:	movups XMMWORD PTR [rsp+0x20],xmm0
    1f55:	call   1e40 <__profile_end_pass>
}
    1f5a:	add    rsp,0x60
    1f5e:	mov    rax,rbx
    1f61:	pop    rbx
    1f62:	pop    rbp
    1f63:	pop    r12
    1f65:	ret
    1f66:	cs nop WORD PTR [rax+rax*1+0x0]

0000000000001f70 <file_size>:
{
    1f70:	sub    rsp,0xa8
  stat(name, &stats);
    1f77:	mov    rsi,QWORD PTR fs:0x28
    1f80:	mov    QWORD PTR [rsp+0x98],rsi
    1f88:	mov    rsi,rsp
    1f8b:	call   1100 <stat@plt>
  return stats.st_size;
    1f90:	mov    rax,QWORD PTR [rsp+0x30]
}
    1f95:	mov    rdx,QWORD PTR [rsp+0x98]
    1f9d:	sub    rdx,QWORD PTR fs:0x28
    1fa6:	jne    1fb0 <file_size+0x40>
    1fa8:	add    rsp,0xa8
    1faf:	ret
    1fb0:	call   1060 <__stack_chk_fail@plt>
    1fb5:	data16 cs nop WORD PTR [rax+rax*1+0x0]

0000000000001fc0 <strings_equal>:
  return a.count == b.count && memcmp(a.data, b.data, a.count) == 0;
    1fc0:	cmp    rsi,rcx
    1fc3:	je     1fd0 <strings_equal+0x10>
    1fc5:	xor    eax,eax
}
    1fc7:	ret
    1fc8:	nop    DWORD PTR [rax+rax*1+0x0]
    1fd0:	mov    rax,rdx
{
    1fd3:	sub    rsp,0x8
    1fd7:	mov    rdx,rsi
  return a.count == b.count && memcmp(a.data, b.data, a.count) == 0;
    1fda:	mov    rsi,rax
    1fdd:	call   10d0 <memcmp@plt>
    1fe2:	test   eax,eax
    1fe4:	sete   al
}
    1fe7:	add    rsp,0x8
    1feb:	ret
    1fec:	nop    DWORD PTR [rax+0x0]

0000000000001ff0 <log_message>:
{
    1ff0:	push   rbp
    1ff1:	mov    r10,rdx
    1ff4:	mov    rbp,rcx
    1ff7:	push   rbx
    1ff8:	sub    rsp,0xd8
    1fff:	mov    QWORD PTR [rsp+0x40],r8
    2004:	mov    QWORD PTR [rsp+0x48],r9
    2009:	test   al,al
    200b:	je     2044 <log_message+0x54>
    200d:	movaps XMMWORD PTR [rsp+0x50],xmm0
    2012:	movaps XMMWORD PTR [rsp+0x60],xmm1
    2017:	movaps XMMWORD PTR [rsp+0x70],xmm2
    201c:	movaps XMMWORD PTR [rsp+0x80],xmm3
    2024:	movaps XMMWORD PTR [rsp+0x90],xmm4
    202c:	movaps XMMWORD PTR [rsp+0xa0],xmm5
    2034:	movaps XMMWORD PTR [rsp+0xb0],xmm6
    203c:	movaps XMMWORD PTR [rsp+0xc0],xmm7
  FILE *stream = stderr;
    2044:	mov    rbx,QWORD PTR fs:0x28
    204d:	mov    QWORD PTR [rsp+0x18],rbx
    2052:	mov    rbx,QWORD PTR [rip+0x30a7]        # 5100 <stderr@GLIBC_2.2.5>
    fprintf(stream, "[" LOG_TITLE " %s]: (%s:%lu) ", level_strings[level], file, line);
    2059:	mov    eax,edi
    205b:	lea    rcx,[rip+0x305e]        # 50c0 <level_strings>
    2062:	mov    rdx,QWORD PTR [rcx+rax*8]
  if (level <= LOG_ERROR)
    2066:	cmp    edi,0x1
    2069:	jbe    20e8 <log_message+0xf8>
      stream = stdout;
    206b:	cmp    edi,0x3
    206e:	cmove  rbx,QWORD PTR [rip+0x306a]        # 50e0 <stdout@GLIBC_2.2.5>
    fprintf(stream, "[" LOG_TITLE " %s]: ", level_strings[level]);
    2076:	xor    eax,eax
    2078:	lea    rsi,[rip+0xfba]        # 3039 <_IO_stdin_used+0x39>
    207f:	mov    rdi,rbx
    2082:	call   10f0 <fprintf@plt>
  vfprintf(stream, message, args);
    2087:	mov    rsi,rbp
    208a:	mov    rdi,rbx
    208d:	mov    rdx,rsp
  va_start(args, message);
    2090:	mov    DWORD PTR [rsp],0x20
    2097:	lea    rax,[rsp+0xf0]
    209f:	mov    DWORD PTR [rsp+0x4],0x30
    20a7:	mov    QWORD PTR [rsp+0x8],rax
    20ac:	lea    rax,[rsp+0x20]
    20b1:	mov    QWORD PTR [rsp+0x10],rax
  vfprintf(stream, message, args);
    20b6:	call   1120 <vfprintf@plt>
  fprintf(stream, "\n");
    20bb:	mov    rsi,rbx
    20be:	mov    edi,0xa
    20c3:	call   10c0 <fputc@plt>
}
    20c8:	mov    rax,QWORD PTR [rsp+0x18]
    20cd:	sub    rax,QWORD PTR fs:0x28
    20d6:	jne    2101 <log_message+0x111>
    20d8:	add    rsp,0xd8
    20df:	pop    rbx
    20e0:	pop    rbp
    20e1:	ret
    20e2:	nop    WORD PTR [rax+rax*1+0x0]
    fprintf(stream, "[" LOG_TITLE " %s]: (%s:%lu) ", level_strings[level], file, line);
    20e8:	mov    rcx,rsi
    20eb:	mov    r8,r10
    20ee:	lea    rsi,[rip+0xf2d]        # 3022 <_IO_stdin_used+0x22>
    20f5:	mov    rdi,rbx
    20f8:	xor    eax,eax
    20fa:	call   10f0 <fprintf@plt>
    20ff:	jmp    2087 <log_message+0x97>
}
    2101:	call   1060 <__stack_chk_fail@plt>
    2106:	cs nop WORD PTR [rax+rax*1+0x0]

0000000000002110 <read_file_to_memory>:
{
    2110:	push   r12
    2112:	mov    r12,rsi
  FILE *file = fopen(name, "rb");
    2115:	lea    rsi,[rip+0xf2b]        # 3047 <_IO_stdin_used+0x47>
{
    211c:	push   rbp
    211d:	push   rbx
    211e:	mov    rbx,rdi
    2121:	sub    rsp,0x10
    2125:	mov    QWORD PTR [rsp+0x8],rdx
  FILE *file = fopen(name, "rb");
    212a:	call   1110 <fopen@plt>
  if (file == NULL)
    212f:	mov    rdx,QWORD PTR [rsp+0x8]
    2134:	test   rax,rax
    2137:	je     2163 <read_file_to_memory+0x53>
    2139:	mov    rbp,rax
  usize byte_count = fread(buffer, sizeof(u8), buffer_size, file);
    213c:	mov    rdi,r12
    213f:	mov    rcx,rax
    2142:	mov    esi,0x1
    2147:	call   1040 <fread@plt>
  fclose(file);
    214c:	mov    rdi,rbp
  usize byte_count = fread(buffer, sizeof(u8), buffer_size, file);
    214f:	mov    rbx,rax
  fclose(file);
    2152:	call   1050 <fclose@plt>
}
    2157:	add    rsp,0x10
    215b:	mov    rax,rbx
    215e:	pop    rbx
    215f:	pop    rbp
    2160:	pop    r12
    2162:	ret
    LOG_ERROR("Unable to open file: %s", name);
    2163:	mov    r8,rbx
    2166:	lea    rcx,[rip+0xedd]        # 304a <_IO_stdin_used+0x4a>
    216d:	xor    eax,eax
    216f:	xor    ebx,ebx
    2171:	mov    edx,0x17b
    2176:	lea    rsi,[rip+0xe98]        # 3015 <_IO_stdin_used+0x15>
    217d:	mov    edi,0x1
    2182:	call   1ff0 <log_message>
    return 0;
    2187:	jmp    2157 <read_file_to_memory+0x47>
    2189:	nop    DWORD PTR [rax+0x0]

0000000000002190 <arena_make>:
{
    2190:	push   rbp
    2191:	mov    rbp,rdi
    2194:	push   rbx
    2195:	mov    rbx,rsi
  arena.base = (u8 *)calloc(reserve_size, 1);
    2198:	mov    esi,0x1
    219d:	mov    rdi,rbx
{
    21a0:	sub    rsp,0x8
  arena.base = (u8 *)calloc(reserve_size, 1);
    21a4:	call   10e0 <calloc@plt>
  if (arena.base == NULL)
    21a9:	test   rax,rax
    21ac:	je     21cc <arena_make+0x3c>
  return arena;
    21ae:	movq   xmm0,rbx
    21b3:	mov    QWORD PTR [rbp+0x0],rax
}
    21b7:	mov    rax,rbp
  return arena;
    21ba:	mov    DWORD PTR [rbp+0x18],0x0
    21c1:	movups XMMWORD PTR [rbp+0x8],xmm0
}
    21c5:	add    rsp,0x8
    21c9:	pop    rbx
    21ca:	pop    rbp
    21cb:	ret
    LOG_FATAL("Failed to allocate arena memory", EXT_ARENA_ALLOCATION);
    21cc:	xor    edi,edi
    21ce:	lea    rcx,[rip+0x10eb]        # 32c0 <_IO_stdin_used+0x2c0>
    21d5:	mov    edx,0x1d9
    21da:	lea    rsi,[rip+0xe34]        # 3015 <_IO_stdin_used+0x15>
    21e1:	call   1ff0 <log_message>
    21e6:	mov    edi,0xffffffff
    21eb:	call   1150 <exit@plt>

00000000000021f0 <arena_make_backed>:
{
    21f0:	sub    rsp,0x8
  ASSERT(backing_buffer != NULL, "Backing buffer for arena must not be NULL!");
    21f4:	test   rsi,rsi
    21f7:	je     11c0 <arena_make_backed.cold>
  ASSERT(backing_size   != 0,    "Backing buffer size for arena must not be 0!");
    21fd:	test   rdx,rdx
    2200:	je     11df <arena_make_backed.cold+0x1f>
    2206:	movq   xmm0,rdx
  return arena;
    220b:	mov    QWORD PTR [rdi],rsi
    220e:	mov    rax,rdi
    2211:	mov    DWORD PTR [rdi+0x18],0x1
    2218:	movups XMMWORD PTR [rdi+0x8],xmm0
}
    221c:	add    rsp,0x8
    2220:	ret
    2221:	nop    DWORD PTR [rax+0x0]
    2225:	data16 cs nop WORD PTR [rax+rax*1+0x0]

0000000000002230 <arena_free>:
{
    2230:	mov    rax,rdi
  if (!(arena->flags & ARENA_FLAG_BUFFER_BACKED))
    2233:	test   BYTE PTR [rdi+0x18],0x1
    2237:	je     2248 <arena_free+0x18>
  ZERO_STRUCT(arena);
    2239:	pxor   xmm0,xmm0
    223d:	movups XMMWORD PTR [rdi],xmm0
    2240:	movups XMMWORD PTR [rdi+0x10],xmm0
    2244:	ret
    2245:	nop    DWORD PTR [rax]
{
    2248:	sub    rsp,0x18
    free(arena->base);
    224c:	mov    rdi,QWORD PTR [rdi]
    224f:	mov    QWORD PTR [rsp+0x8],rax
    2254:	call   1030 <free@plt>
    2259:	mov    rax,QWORD PTR [rsp+0x8]
  ZERO_STRUCT(arena);
    225e:	pxor   xmm0,xmm0
    2262:	movups XMMWORD PTR [rax],xmm0
    2265:	movups XMMWORD PTR [rax+0x10],xmm0
}
    2269:	add    rsp,0x18
    226d:	ret
    226e:	xchg   ax,ax

0000000000002270 <arena_alloc>:
void *arena_alloc(Arena *arena, isize size, isize alignment) {
    2270:	push   rbp
    2271:	push   rbx
    2272:	sub    rsp,0x8
  ASSERT(arena->base != NULL, "Arena memory is null");
    2276:	mov    rax,QWORD PTR [rdi]
    2279:	test   rax,rax
    227c:	je     11fe <arena_alloc.cold>
    2282:	mov    rcx,rdx
  isize aligned_offset = ALIGN_ROUND_UP(arena->next_offset, alignment);
    2285:	mov    rdx,QWORD PTR [rdi+0x10]
  if ((aligned_offset + size) > arena->capacity)
    2289:	mov    r9,QWORD PTR [rdi+0x8]
    228d:	mov    rbx,rdi
  isize aligned_offset = ALIGN_ROUND_UP(arena->next_offset, alignment);
    2290:	lea    rdx,[rdx+rcx*1-0x1]
    2295:	neg    rcx
    2298:	and    rdx,rcx
  if ((aligned_offset + size) > arena->capacity)
    229b:	lea    rbp,[rdx+rsi*1]
    229f:	cmp    rbp,r9
    22a2:	jg     22bd <arena_alloc+0x4d>
  ZERO_SIZE(ptr, size); // make sure memory is zeroed out
    22a4:	lea    rdi,[rax+rdx*1]
    22a8:	mov    rdx,rsi
    22ab:	xor    esi,esi
    22ad:	call   10a0 <memset@plt>
  arena->next_offset = aligned_offset + size;
    22b2:	mov    QWORD PTR [rbx+0x10],rbp
}
    22b6:	add    rsp,0x8
    22ba:	pop    rbx
    22bb:	pop    rbp
    22bc:	ret
    LOG_FATAL("Not enough memory in arena, NEED: %ld bytes HAVE: %ld bytes",
    22bd:	xor    edi,edi
    22bf:	mov    r8,rbp
    22c2:	lea    rcx,[rip+0x10e7]        # 33b0 <_IO_stdin_used+0x3b0>
    22c9:	xor    eax,eax
    22cb:	mov    edx,0x207
    22d0:	lea    rsi,[rip+0xd3e]        # 3015 <_IO_stdin_used+0x15>
    22d7:	call   1ff0 <log_message>
    22dc:	mov    edi,0xffffffff
    22e1:	call   1150 <exit@plt>
    22e6:	cs nop WORD PTR [rax+rax*1+0x0]

00000000000022f0 <read_file_to_arena>:
{
    22f0:	push   r15
    22f2:	push   r14
    22f4:	push   r13
    22f6:	push   r12
    22f8:	push   rbp
    22f9:	mov    rbp,rdi
    22fc:	push   rbx
    22fd:	sub    rsp,0xb8
    2304:	mov    r12,QWORD PTR fs:0x28
    230d:	mov    QWORD PTR [rsp+0xa8],r12
    2315:	mov    r12,rsi
  stat(name, &stats);
    2318:	lea    rsi,[rsp+0x10]
    231d:	mov    rdi,r12
    2320:	call   1100 <stat@plt>
  u8 *buffer = arena_calloc(arena, buffer_size, u8);
    2325:	mov    rdi,rbp
  Arena save = *arena;
    2328:	mov    r15,QWORD PTR [rbp+0x0]
    232c:	mov    r14d,DWORD PTR [rbp+0x18]
  return stats.st_size;
    2330:	mov    rbx,QWORD PTR [rsp+0x40]
  Arena save = *arena;
    2335:	movdqu xmm0,XMMWORD PTR [rbp+0x8]
  u8 *buffer = arena_calloc(arena, buffer_size, u8);
    233a:	mov    edx,0x1
    233f:	mov    rsi,rbx
  Arena save = *arena;
    2342:	movaps XMMWORD PTR [rsp],xmm0
  u8 *buffer = arena_calloc(arena, buffer_size, u8);
    2346:	call   2270 <arena_alloc>
  if (read_file_to_memory(name, buffer, buffer_size) != buffer_size)
    234b:	mov    rdx,rbx
    234e:	mov    rdi,r12
    2351:	mov    rsi,rax
  u8 *buffer = arena_calloc(arena, buffer_size, u8);
    2354:	mov    r13,rax
  if (read_file_to_memory(name, buffer, buffer_size) != buffer_size)
    2357:	call   2110 <read_file_to_memory>
    235c:	cmp    rax,rbx
    235f:	je     2394 <read_file_to_arena+0xa4>
    LOG_ERROR("Unable to read file: %s", name);
    2361:	mov    r8,r12
    2364:	mov    edx,0x19d
    2369:	mov    edi,0x1
    236e:	xor    eax,eax
    2370:	lea    rcx,[rip+0xceb]        # 3062 <_IO_stdin_used+0x62>
    2377:	lea    rsi,[rip+0xc97]        # 3015 <_IO_stdin_used+0x15>
    237e:	call   1ff0 <log_message>
    *arena = save; // Rollback allocation
    2383:	movdqa xmm0,XMMWORD PTR [rsp]
    2388:	mov    QWORD PTR [rbp+0x0],r15
    238c:	mov    DWORD PTR [rbp+0x18],r14d
    2390:	movups XMMWORD PTR [rbp+0x8],xmm0
  return result;
    2394:	mov    rax,r13
    2397:	mov    rdx,rbx
}
    239a:	mov    rcx,QWORD PTR [rsp+0xa8]
    23a2:	sub    rcx,QWORD PTR fs:0x28
    23ab:	jne    23bf <read_file_to_arena+0xcf>
    23ad:	add    rsp,0xb8
    23b4:	pop    rbx
    23b5:	pop    rbp
    23b6:	pop    r12
    23b8:	pop    r13
    23ba:	pop    r14
    23bc:	pop    r15
    23be:	ret
    23bf:	call   1060 <__stack_chk_fail@plt>
    23c4:	nop
    23c5:	data16 cs nop WORD PTR [rax+rax*1+0x0]

00000000000023d0 <arena_pop_to>:
  ASSERT(offset < arena->next_offset,
    23d0:	cmp    QWORD PTR [rdi+0x10],rsi
    23d4:	jle    121d <arena_pop_to.cold>
  arena->next_offset = offset;
    23da:	mov    QWORD PTR [rdi+0x10],rsi
    23de:	ret
    23df:	nop

00000000000023e0 <arena_pop>:
  arena_pop_to(arena, arena->next_offset - size);
    23e0:	mov    rdx,QWORD PTR [rdi+0x10]
    23e4:	mov    rax,rdx
    23e7:	sub    rax,rsi
  ASSERT(offset < arena->next_offset,
    23ea:	cmp    rdx,rax
    23ed:	jle    1223 <arena_pop.cold>
  arena->next_offset = offset;
    23f3:	mov    QWORD PTR [rdi+0x10],rax
    23f7:	ret
    23f8:	nop    DWORD PTR [rax+rax*1+0x0]

0000000000002400 <arena_clear>:
  arena->next_offset = 0;
    2400:	mov    QWORD PTR [rdi+0x10],0x0
}
    2408:	ret
    2409:	nop    DWORD PTR [rax+0x0]

0000000000002410 <scratch_begin>:
  return scratch;
    2410:	mov    rdx,QWORD PTR [rdi+0x10]
    2414:	mov    rax,rdi
}
    2417:	ret
    2418:	nop    DWORD PTR [rax+rax*1+0x0]

0000000000002420 <scratch_end>:
  arena_pop_to(scratch->arena, scratch->offset_save);
    2420:	mov    rax,QWORD PTR [rdi]
    2423:	mov    rdx,QWORD PTR [rdi+0x8]
  ASSERT(offset < arena->next_offset,
    2427:	cmp    rdx,QWORD PTR [rax+0x10]
    242b:	jge    1229 <scratch_end.cold>
  ZERO_STRUCT(scratch);
    2431:	pxor   xmm0,xmm0
  arena->next_offset = offset;
    2435:	mov    QWORD PTR [rax+0x10],rdx
  ZERO_STRUCT(scratch);
    2439:	movups XMMWORD PTR [rdi],xmm0
    243c:	ret
    243d:	nop    DWORD PTR [rax]

0000000000002440 <get_json_token>:
  return parser->at < parser->source.count;
    2440:	mov    r8,QWORD PTR [rsi+0x10]
    2444:	mov    rdx,QWORD PTR [rsi+0x8]
{
    2448:	mov    r9,rdi
  while (parser_incomplete(parser)  &&
    244b:	cmp    r8,rdx
    244e:	jae    24cb <get_json_token+0x8b>
  return parser->source.data + parser->at;
    2450:	mov    rcx,QWORD PTR [rsi]
    2453:	mov    edi,0x800013
    2458:	nop    DWORD PTR [rax+rax*1+0x0]
    2460:	movzx  eax,BYTE PTR [rcx+r8*1]
    2465:	sub    eax,0x9
    2468:	cmp    al,0x17
    246a:	ja     24a0 <get_json_token+0x60>
    246c:	bt     rdi,rax
    2470:	jae    24a0 <get_json_token+0x60>
  parser->at += advance;
    2472:	add    r8,0x1
    2476:	mov    QWORD PTR [rsi+0x10],r8
  while (parser_incomplete(parser)  &&
    247a:	cmp    r8,rdx
    247d:	jne    2460 <get_json_token+0x20>
  parser->at += advance;
    247f:	add    rdx,0x1
  JSON_Token token = {0};
    2483:	xor    eax,eax
    2485:	xor    r10d,r10d
  parser->at += advance;
    2488:	mov    QWORD PTR [rsi+0x10],rdx
  JSON_Token token = {0};
    248c:	xor    edx,edx
  return token;
    248e:	mov    QWORD PTR [r9+0x10],rax
}
    2492:	mov    rax,r9
  return token;
    2495:	mov    DWORD PTR [r9],edx
    2498:	mov    QWORD PTR [r9+0x8],r10
}
    249c:	ret
    249d:	nop    DWORD PTR [rax]
  if (parser_incomplete(parser)) // If we've not reached the end of file
    24a0:	cmp    r8,rdx
    24a3:	jae    24cb <get_json_token+0x8b>
  return parser->source.data + parser->at;
    24a5:	lea    r10,[rcx+r8*1]
    switch (*parser_at(parser))
    24a9:	movzx  eax,BYTE PTR [r10]
    24ad:	sub    eax,0x22
    24b0:	cmp    al,0x5b
    24b2:	ja     2528 <get_json_token+0xe8>
    24b4:	lea    rdi,[rip+0x1265]        # 3720 <_IO_stdin_used+0x720>
    24bb:	movzx  eax,al
{
    24be:	sub    rsp,0x18
    switch (*parser_at(parser))
    24c2:	movsxd rax,DWORD PTR [rdi+rax*4]
    24c6:	add    rax,rdi
    24c9:	jmp    rax
    24cb:	mov    rdx,r8
    24ce:	jmp    247f <get_json_token+0x3f>
  return memcmp(parser_at(parser), literal_string.data, literal_string.count) == 0;
    24d0:	cmp    DWORD PTR [r10],0x736c6166
    24d7:	je     26c0 <get_json_token+0x280>
    24dd:	mov    QWORD PTR [rsp],r10
          LOG_ERROR("Encountered unrecognized literal at byte %lu", parser->at);
    24e1:	lea    rcx,[rip+0xf08]        # 33f0 <_IO_stdin_used+0x3f0>
    24e8:	mov    edx,0xee
    24ed:	mov    QWORD PTR [rsp+0x8],r9
          LOG_ERROR("Encountered unrecognized literal at byte %lu", parser->at);
    24f2:	lea    rsi,[rip+0xb0b]        # 3004 <_IO_stdin_used+0x4>
    24f9:	mov    edi,0x1
    24fe:	xor    eax,eax
    2500:	call   1ff0 <log_message>
    2505:	mov    r10,QWORD PTR [rsp]
    2509:	mov    r9,QWORD PTR [rsp+0x8]
  JSON_Token token = {0};
    250e:	xor    eax,eax
    2510:	xor    edx,edx
  return token;
    2512:	mov    QWORD PTR [r9+0x10],rax
}
    2516:	mov    rax,r9
  return token;
    2519:	mov    DWORD PTR [r9],edx
    251c:	mov    QWORD PTR [r9+0x8],r10
}
    2520:	add    rsp,0x18
    2524:	ret
    2525:	nop    DWORD PTR [rax]
  JSON_Token token = {0};
    2528:	xor    eax,eax
    252a:	xor    edx,edx
    252c:	jmp    248e <get_json_token+0x4e>
  ASSERT(parser->at < parser->source.count, "Attempted to read past parser source");
    2531:	mov    rdi,QWORD PTR [rsi+0x10]
    2535:	cmp    rdi,rdx
    2538:	jae    122f <get_json_token.cold>
    253e:	sub    rdx,rdi
        usize digit_count = 0;
    2541:	xor    eax,eax
    2543:	lea    r8,[rcx+rdi*1]
        while (is_numeric(*parser_at(parser)))
    2547:	movzx  ecx,BYTE PTR [r8+rax*1]
  switch (ch)
    254c:	cmp    cl,0x2e
    254f:	ja     2697 <get_json_token+0x257>
    2555:	cmp    cl,0x2c
    2558:	ja     26a3 <get_json_token+0x263>
        token.type  = JSON_TOKEN_NUMBER;
    255e:	mov    edx,0x8
      break;
    2563:	jmp    2512 <get_json_token+0xd2>
  parser->at += advance;
    2565:	add    r8,0x1
        token.value.count = 1;
    2569:	mov    eax,0x1
        token.type = JSON_TOKEN_COMMA;
    256e:	mov    edx,0x5
  parser->at += advance;
    2573:	mov    QWORD PTR [rsi+0x10],r8
}
    2577:	jmp    2512 <get_json_token+0xd2>
  parser->at += advance;
    2579:	add    r8,0x1
        token.value.count = 1;
    257d:	mov    eax,0x1
        token.type = JSON_TOKEN_COLON;
    2582:	mov    edx,0x6
  parser->at += advance;
    2587:	mov    QWORD PTR [rsi+0x10],r8
}
    258b:	jmp    2512 <get_json_token+0xd2>
  parser->at += advance;
    258d:	add    r8,0x1
        token.value.count = 1;
    2591:	mov    eax,0x1
        token.type = JSON_TOKEN_OPEN_SQUARE_BRACE;
    2596:	mov    edx,0x3
  parser->at += advance;
    259b:	mov    QWORD PTR [rsi+0x10],r8
}
    259f:	jmp    2512 <get_json_token+0xd2>
  parser->at += advance;
    25a4:	add    r8,0x1
        token.value.count = 1;
    25a8:	mov    eax,0x1
        token.type = JSON_TOKEN_CLOSE_SQUARE_BRACE;
    25ad:	mov    edx,0x4
  parser->at += advance;
    25b2:	mov    QWORD PTR [rsi+0x10],r8
}
    25b6:	jmp    2512 <get_json_token+0xd2>
        if (parser_token_is_literal(parser, string))
    25bb:	cmp    DWORD PTR [r10],0x6c6c756e
    25c2:	jne    26df <get_json_token+0x29f>
  parser->at += advance;
    25c8:	add    r8,0x4
  JSON_Token token = {0};
    25cc:	xor    eax,eax
          token.type  = JSON_TOKEN_NULL;
    25ce:	mov    edx,0xb
  parser->at += advance;
    25d3:	mov    QWORD PTR [rsi+0x10],r8
}
    25d7:	jmp    2512 <get_json_token+0xd2>
        if (parser_token_is_literal(parser, string))
    25dc:	cmp    DWORD PTR [r10],0x65757274
    25e3:	jne    26f9 <get_json_token+0x2b9>
  parser->at += advance;
    25e9:	add    r8,0x4
  JSON_Token token = {0};
    25ed:	xor    eax,eax
          token.type  = JSON_TOKEN_TRUE;
    25ef:	mov    edx,0x9
  parser->at += advance;
    25f4:	mov    QWORD PTR [rsi+0x10],r8
}
    25f8:	jmp    2512 <get_json_token+0xd2>
  parser->at += advance;
    25fd:	add    r8,0x1
        token.value.count = 1;
    2601:	mov    eax,0x1
        token.type = JSON_TOKEN_CLOSE_CURLY_BRACE;
    2606:	mov    edx,0x2
  parser->at += advance;
    260b:	mov    QWORD PTR [rsi+0x10],r8
}
    260f:	jmp    2512 <get_json_token+0xd2>
  parser->at += advance;
    2614:	add    r8,0x1
        token.value.count = 1;
    2618:	mov    eax,0x1
        token.type = JSON_TOKEN_OPEN_CURLY_BRACE;
    261d:	mov    edx,0x1
  parser->at += advance;
    2622:	mov    QWORD PTR [rsi+0x10],r8
}
    2626:	jmp    2512 <get_json_token+0xd2>
  parser->at += advance;
    262b:	lea    r10,[r8+0x1]
    262f:	mov    QWORD PTR [rsi+0x10],r10
  ASSERT(parser->at < parser->source.count, "Attempted to read past parser source");
    2633:	cmp    r10,rdx
    2636:	jae    122f <get_json_token.cold>
    263c:	mov    rdi,r10
    263f:	jmp    266d <get_json_token+0x22d>
    2641:	nop    WORD PTR [rax+rax*1+0x0]
    264a:	data16 cs nop WORD PTR [rax+rax*1+0x0]
    2655:	data16 cs nop WORD PTR [rax+rax*1+0x0]
  parser->at += advance;
    2660:	mov    QWORD PTR [rsi+0x10],rdi
  ASSERT(parser->at < parser->source.count, "Attempted to read past parser source");
    2664:	cmp    rdi,rdx
    2667:	jae    2713 <get_json_token+0x2d3>
        while (*parser_at(parser) != '"')
    266d:	movzx  r11d,BYTE PTR [rcx+rdi*1]
    2672:	mov    rax,rdi
  parser->at += advance;
    2675:	add    rdi,0x1
        while (*parser_at(parser) != '"')
    2679:	cmp    r11b,0x22
    267d:	jne    2660 <get_json_token+0x220>
        token.value.count = string_count;
    267f:	sub    rax,r8
  parser->at += advance;
    2682:	mov    QWORD PTR [rsi+0x10],rdi
  return parser->source.data + parser->at;
    2686:	add    r10,rcx
        token.type = JSON_TOKEN_STRING;
    2689:	mov    edx,0x7
        token.value.count = string_count;
    268e:	sub    rax,0x1
}
    2692:	jmp    2512 <get_json_token+0xd2>
  switch (ch)
    2697:	sub    ecx,0x30
    269a:	cmp    cl,0x9
    269d:	ja     255e <get_json_token+0x11e>
          digit_count += 1;
    26a3:	add    rax,0x1
  parser->at += advance;
    26a7:	lea    rcx,[rdi+rax*1]
    26ab:	mov    QWORD PTR [rsi+0x10],rcx
  ASSERT(parser->at < parser->source.count, "Attempted to read past parser source");
    26af:	cmp    rdx,rax
    26b2:	jne    2547 <get_json_token+0x107>
    26b8:	jmp    122f <get_json_token.cold>
    26bd:	nop    DWORD PTR [rax]
  return memcmp(parser_at(parser), literal_string.data, literal_string.count) == 0;
    26c0:	cmp    BYTE PTR [r10+0x4],0x65
    26c5:	jne    24dd <get_json_token+0x9d>
  parser->at += advance;
    26cb:	add    r8,0x5
  JSON_Token token = {0};
    26cf:	xor    eax,eax
          token.type  = JSON_TOKEN_FALSE;
    26d1:	mov    edx,0xa
  parser->at += advance;
    26d6:	mov    QWORD PTR [rsi+0x10],r8
}
    26da:	jmp    2512 <get_json_token+0xd2>
    26df:	mov    QWORD PTR [rsp],r10
          LOG_ERROR("Encountered unrecognized literal at byte %lu", parser->at);
    26e3:	lea    rcx,[rip+0xd06]        # 33f0 <_IO_stdin_used+0x3f0>
    26ea:	mov    edx,0xfd
    26ef:	mov    QWORD PTR [rsp+0x8],r9
    26f4:	jmp    24f2 <get_json_token+0xb2>
    26f9:	mov    QWORD PTR [rsp],r10
          LOG_ERROR("Encountered unrecognized literal at byte %lu", parser->at);
    26fd:	lea    rcx,[rip+0xcec]        # 33f0 <_IO_stdin_used+0x3f0>
    2704:	mov    edx,0xdf
    2709:	mov    QWORD PTR [rsp+0x8],r9
    270e:	jmp    24f2 <get_json_token+0xb2>
    2713:	jmp    122f <get_json_token.cold>
    2718:	nop    DWORD PTR [rax+rax*1+0x0]

0000000000002720 <parse_json_children>:
{
    2720:	push   r15
    2722:	push   r14
    2724:	push   r13
    2726:	push   r12
    2728:	push   rbp
    2729:	push   rbx
    272a:	sub    rsp,0xc8
    .parent_index = g_profiler.current_parent_zone,
    2731:	mov    r8,QWORD PTR [rip+0x29f0]        # 5128 <g_profiler+0x8>
    2738:	mov    QWORD PTR [rsp+0x10],rdi
    273d:	mov    r13,QWORD PTR fs:0x28
    2746:	mov    QWORD PTR [rsp+0xb8],r13
    274e:	mov    r13d,edx
  g_profiler.current_parent_zone = zone_index;
    2751:	mov    QWORD PTR [rip+0x29cc],0x2        # 5128 <g_profiler+0x8>
    275c:	rdtsc
    275e:	shl    rdx,0x20
  return pass;
    2762:	mov    QWORD PTR [rsp+0xa8],r8
    276a:	mov    QWORD PTR [rsp+0x88],0x13
    2776:	or     rax,rdx
    2779:	lea    rdx,[rip+0x1130]        # 38b0 <__func__.2>
    2780:	movq   xmm0,rax
  while (parser_incomplete(parser))
    2785:	mov    rax,QWORD PTR [rsi+0x8]
    2789:	movhps xmm0,QWORD PTR [rip+0x2a08]        # 5198 <g_profiler+0x78>
    2790:	mov    QWORD PTR [rsp+0x80],rdx
    2798:	mov    QWORD PTR [rsp+0xa0],0x2
    27a4:	movaps XMMWORD PTR [rsp+0x90],xmm0
    27ac:	cmp    QWORD PTR [rsi+0x10],rax
    27b0:	jae    29d1 <parse_json_children+0x2b1>
    27b6:	mov    DWORD PTR [rsp+0xc],ecx
    27ba:	mov    r15,rsi
  JSON_Object *current_last_child = NULL;
    27bd:	xor    r12d,r12d
  JSON_Object *first_child        = NULL;
    27c0:	xor    r14d,r14d
    27c3:	xchg   ax,ax
    27c5:	data16 cs nop WORD PTR [rax+rax*1+0x0]
    if (has_keys)
    27d0:	mov    ecx,DWORD PTR [rsp+0xc]
    JSON_Token key_token = {0};
    27d4:	pxor   xmm0,xmm0
    27d8:	mov    QWORD PTR [rsp+0x30],0x0
    JSON_Token value_token = {0};
    27e1:	mov    QWORD PTR [rsp+0x50],0x0
    JSON_Token key_token = {0};
    27ea:	movaps XMMWORD PTR [rsp+0x20],xmm0
    JSON_Token value_token = {0};
    27ef:	movaps XMMWORD PTR [rsp+0x40],xmm0
    if (has_keys)
    27f4:	test   ecx,ecx
    27f6:	je     2948 <parse_json_children+0x228>
      key_token = get_json_token(parser);
    27fc:	lea    rdi,[rsp+0x20]
    2801:	mov    rsi,r15
    2804:	call   2440 <get_json_token>
    2809:	mov    eax,DWORD PTR [rsp+0x20]
    280d:	mov    r10,QWORD PTR [rsp+0x28]
    2812:	mov    rbx,QWORD PTR [rsp+0x30]
      if (key_token.type == JSON_TOKEN_STRING)
    2817:	cmp    eax,0x7
    281a:	je     2980 <parse_json_children+0x260>
        LOG_ERROR("Unexpected key type: %s, (value = %*.s)", JSON_Token_Type_strings[key_token.type], String_Format(key_token.value));
    2820:	sub    rsp,0x8
    2824:	mov    edx,0x164
    2829:	mov    r9d,ebx
    282c:	mov    edi,0x1
    2831:	push   r10
    2833:	lea    rcx,[rip+0x2526]        # 4d60 <JSON_Token_Type_strings>
    283a:	lea    rsi,[rip+0x7c3]        # 3004 <_IO_stdin_used+0x4>
    2841:	mov    r8,QWORD PTR [rcx+rax*8]
    2845:	xor    eax,eax
    2847:	lea    rcx,[rip+0xbf2]        # 3440 <_IO_stdin_used+0x440>
    284e:	mov    QWORD PTR [rsp+0x28],r10
    2853:	call   1ff0 <log_message>
    2858:	pop    rax
    2859:	pop    rdx
    285a:	mov    r10,QWORD PTR [rsp+0x18]
    285f:	lea    rbp,[rsp+0x60]
    JSON_Token value_token = {0};
    2864:	xor    eax,eax
    2866:	cs nop WORD PTR [rax+rax*1+0x0]
    JSON_Object *object = parse_json_object(arena, parser, key_token.value, value_token);
    2870:	mov    QWORD PTR [rsp+0x30],rbx
    2875:	sub    rsp,0x20
    2879:	mov    rsi,r15
    287c:	mov    QWORD PTR [rsp+0x48],r10
    2881:	mov    DWORD PTR [rsp+0x60],eax
    2885:	movdqa xmm0,XMMWORD PTR [rsp+0x60]
    288b:	mov    rax,QWORD PTR [rsp+0x70]
    2890:	mov    rdx,QWORD PTR [rsp+0x48]
    2895:	mov    rcx,QWORD PTR [rsp+0x50]
    289a:	mov    rdi,QWORD PTR [rsp+0x30]
    289f:	movups XMMWORD PTR [rsp],xmm0
    28a3:	mov    QWORD PTR [rsp+0x10],rax
    28a8:	call   2a60 <parse_json_object>
      if (!first_child)
    28ad:	add    rsp,0x20
    JSON_Object *object = parse_json_object(arena, parser, key_token.value, value_token);
    28b1:	mov    rbx,rax
      if (!first_child)
    28b4:	test   r14,r14
    28b7:	je     2970 <parse_json_children+0x250>
        current_last_child->next_sibling = object;
    28bd:	mov    QWORD PTR [r12+0x28],rax
    JSON_Token expect_comma_or_end = get_json_token(parser);
    28c2:	mov    rsi,r15
    28c5:	mov    rdi,rbp
    28c8:	call   2440 <get_json_token>
    28cd:	mov    eax,DWORD PTR [rsp+0x60]
    if (expect_comma_or_end.type == end_token)
    28d1:	cmp    r13d,eax
    28d4:	je     29e0 <parse_json_children+0x2c0>
    else if (expect_comma_or_end.type != JSON_TOKEN_COMMA)
    28da:	cmp    eax,0x5
    28dd:	je     292c <parse_json_children+0x20c>
      LOG_ERROR("Expected comma, parsed Token :: Type = %s, Value = '%.*s', \n", JSON_Token_Type_strings[expect_comma_or_end.type],
    28df:	mov    r9,QWORD PTR [rsp+0x70]
    28e4:	sub    rsp,0x18
    28e8:	lea    rcx,[rip+0x2471]        # 4d60 <JSON_Token_Type_strings>
    28ef:	mov    edx,0x18b
    28f4:	movdqa xmm0,XMMWORD PTR [rsp+0x78]
    28fa:	mov    r8,QWORD PTR [rcx+rax*8]
    28fe:	mov    edi,0x1
    2903:	xor    eax,eax
    2905:	mov    QWORD PTR [rsp+0x10],r9
    290a:	lea    rcx,[rip+0xb57]        # 3468 <_IO_stdin_used+0x468>
    2911:	lea    rsi,[rip+0x6ec]        # 3004 <_IO_stdin_used+0x4>
    2918:	movups XMMWORD PTR [rsp],xmm0
    291c:	push   QWORD PTR [rsp+0x80]
    2923:	call   1ff0 <log_message>
    2928:	add    rsp,0x20
  while (parser_incomplete(parser))
    292c:	mov    rax,QWORD PTR [r15+0x8]
    2930:	cmp    QWORD PTR [r15+0x10],rax
    2934:	jae    29e0 <parse_json_children+0x2c0>
    293a:	mov    r12,rbx
    293d:	jmp    27d0 <parse_json_children+0xb0>
    2942:	nop    WORD PTR [rax+rax*1+0x0]
      value_token = get_json_token(parser);
    2948:	lea    rdi,[rsp+0x40]
    294d:	mov    rsi,r15
    JSON_Token key_token = {0};
    2950:	xor    ebx,ebx
      value_token = get_json_token(parser);
    2952:	call   2440 <get_json_token>
    2957:	mov    eax,DWORD PTR [rsp+0x40]
    JSON_Token key_token = {0};
    295b:	xor    r10d,r10d
    if (value_token.type == end_token)
    295e:	cmp    eax,r13d
    2961:	je     29e0 <parse_json_children+0x2c0>
    2963:	lea    rbp,[rsp+0x60]
    2968:	jmp    2870 <parse_json_children+0x150>
    296d:	nop    DWORD PTR [rax]
        first_child        = object;
    2970:	mov    r14,rax
    2973:	jmp    28c2 <parse_json_children+0x1a2>
    2978:	nop    DWORD PTR [rax+rax*1+0x0]
        JSON_Token expect_colon = get_json_token(parser);
    2980:	lea    rbp,[rsp+0x60]
    2985:	mov    rsi,r15
    2988:	mov    QWORD PTR [rsp+0x18],r10
    298d:	mov    rdi,rbp
    2990:	call   2440 <get_json_token>
        if (expect_colon.type == JSON_TOKEN_COLON)
    2995:	cmp    DWORD PTR [rsp+0x60],0x6
    299a:	je     2a40 <parse_json_children+0x320>
          LOG_ERROR("Expected colon after key: %*.s", String_Format(key_token.value));
    29a0:	mov    r9,QWORD PTR [rsp+0x18]
    29a5:	mov    r8d,ebx
    29a8:	mov    edx,0x15f
    29ad:	xor    eax,eax
    29af:	lea    rcx,[rip+0xa6a]        # 3420 <_IO_stdin_used+0x420>
    29b6:	lea    rsi,[rip+0x647]        # 3004 <_IO_stdin_used+0x4>
    29bd:	mov    edi,0x1
    29c2:	call   1ff0 <log_message>
    if (value_token.type == end_token)
    29c7:	mov    r10,QWORD PTR [rsp+0x18]
    29cc:	jmp    2864 <parse_json_children+0x144>
  JSON_Object *first_child        = NULL;
    29d1:	xor    r14d,r14d
    29d4:	nop
    29d5:	data16 cs nop WORD PTR [rax+rax*1+0x0]
  profile_end_func();
    29e0:	sub    rsp,0x30
    29e4:	movdqa xmm0,XMMWORD PTR [rsp+0xb0]
    29ed:	movups XMMWORD PTR [rsp],xmm0
    29f1:	movdqa xmm0,XMMWORD PTR [rsp+0xc0]
    29fa:	movups XMMWORD PTR [rsp+0x10],xmm0
    29ff:	movdqa xmm0,XMMWORD PTR [rsp+0xd0]
    2a08:	movups XMMWORD PTR [rsp+0x20],xmm0
    2a0d:	call   1e40 <__profile_end_pass>
  return first_child;
    2a12:	add    rsp,0x30
}
    2a16:	mov    rax,QWORD PTR [rsp+0xb8]
    2a1e:	sub    rax,QWORD PTR fs:0x28
    2a27:	jne    2a5b <parse_json_children+0x33b>
    2a29:	add    rsp,0xc8
    2a30:	mov    rax,r14
    2a33:	pop    rbx
    2a34:	pop    rbp
    2a35:	pop    r12
    2a37:	pop    r13
    2a39:	pop    r14
    2a3b:	pop    r15
    2a3d:	ret
    2a3e:	xchg   ax,ax
          value_token = get_json_token(parser);
    2a40:	lea    rdi,[rsp+0x40]
    2a45:	mov    rsi,r15
    2a48:	call   2440 <get_json_token>
    2a4d:	mov    eax,DWORD PTR [rsp+0x40]
    2a51:	mov    r10,QWORD PTR [rsp+0x18]
    2a56:	jmp    295e <parse_json_children+0x23e>
}
    2a5b:	call   1060 <__stack_chk_fail@plt>

0000000000002a60 <parse_json_object>:
{
    2a60:	push   r13
    2a62:	mov    r9,rdi
    2a65:	mov    r13,rcx
    2a68:	mov    rdi,rsi
    2a6b:	push   r12
    2a6d:	mov    r12,rdx
    2a70:	push   rbx
    2a71:	sub    rsp,0x40
    .parent_index = g_profiler.current_parent_zone,
    2a75:	mov    rsi,QWORD PTR [rip+0x26ac]        # 5128 <g_profiler+0x8>
  g_profiler.current_parent_zone = zone_index;
    2a7c:	mov    QWORD PTR [rip+0x26a1],0x1        # 5128 <g_profiler+0x8>
    2a87:	mov    ecx,DWORD PTR [rsp+0x60]
    2a8b:	rdtsc
  return pass;
    2a8d:	lea    rbx,[rip+0xe3c]        # 38d0 <__func__.3>
    2a94:	shl    rdx,0x20
    2a98:	mov    QWORD PTR [rsp+0x10],rbx
    2a9d:	or     rax,rdx
    2aa0:	mov    QWORD PTR [rsp+0x38],rsi
    first_child = parse_json_children(arena, parser, JSON_TOKEN_CLOSE_CURLY_BRACE, has_keys);
    2aa5:	mov    edx,0x2
    2aaa:	mov    QWORD PTR [rsp+0x18],0x11
    2ab3:	movq   xmm0,rax
    2ab8:	movhps xmm0,QWORD PTR [rip+0x26b1]        # 5170 <g_profiler+0x50>
    2abf:	mov    QWORD PTR [rsp+0x30],0x1
    2ac8:	movaps XMMWORD PTR [rsp+0x20],xmm0
  if (token.type == JSON_TOKEN_OPEN_CURLY_BRACE)
    2acd:	cmp    ecx,0x1
    2ad0:	je     2ba7 <parse_json_object+0x147>
  else if (token.type == JSON_TOKEN_OPEN_SQUARE_BRACE)
    2ad6:	cmp    ecx,0x3
    2ad9:	je     2ba0 <parse_json_object+0x140>
  b32 is_value_type = (type == JSON_TOKEN_STRING ||
    2adf:	lea    eax,[rcx-0x7]
                       type == JSON_TOKEN_NULL   ||
    2ae2:	cmp    eax,0x4
    2ae5:	ja     2b58 <parse_json_object+0xf8>
  JSON_Object *first_child = NULL;
    2ae7:	xor    ebx,ebx
  JSON_Object *result  = arena_new(arena, JSON_Object);
    2ae9:	mov    rdi,r9
    2aec:	mov    edx,0x8
    2af1:	mov    esi,0x30
    2af6:	call   2270 <arena_alloc>
  result->value        = token.value;
    2afb:	movdqu xmm0,XMMWORD PTR [rsp+0x68]
  profile_end_func();
    2b01:	sub    rsp,0x30
  result->key          = key;
    2b05:	mov    QWORD PTR [rax],r12
  JSON_Object *result  = arena_new(arena, JSON_Object);
    2b08:	mov    r9,rax
  result->value        = token.value;
    2b0b:	movups XMMWORD PTR [rax+0x10],xmm0
  profile_end_func();
    2b0f:	movdqa xmm0,XMMWORD PTR [rsp+0x40]
  result->key          = key;
    2b15:	mov    QWORD PTR [rax+0x8],r13
  result->first_child  = first_child;
    2b19:	mov    QWORD PTR [rax+0x20],rbx
  result->next_sibling = NULL;
    2b1d:	mov    QWORD PTR [rax+0x28],0x0
  profile_end_func();
    2b25:	movups XMMWORD PTR [rsp],xmm0
    2b29:	movdqa xmm0,XMMWORD PTR [rsp+0x50]
    2b2f:	movups XMMWORD PTR [rsp+0x10],xmm0
    2b34:	movdqa xmm0,XMMWORD PTR [rsp+0x60]
    2b3a:	movups XMMWORD PTR [rsp+0x20],xmm0
    2b3f:	call   1e40 <__profile_end_pass>
}
    2b44:	add    rsp,0x70
    2b48:	mov    rax,r9
    2b4b:	pop    rbx
    2b4c:	pop    r12
    2b4e:	pop    r13
    2b50:	ret
    2b51:	nop    DWORD PTR [rax+0x0]
    2b58:	mov    QWORD PTR [rsp+0x8],r9
    LOG_ERROR("Unexpected token type encountered while parsing json object: %s, (value = %.*s)", JSON_Token_Type_strings[token.type], token.value);
    2b5d:	lea    rax,[rip+0x21fc]        # 4d60 <JSON_Token_Type_strings>
    2b64:	mov    edx,0x134
    2b69:	lea    rsi,[rip+0x494]        # 3004 <_IO_stdin_used+0x4>
    2b70:	push   QWORD PTR [rsp+0x70]
    2b74:	mov    r8,QWORD PTR [rax+rcx*8]
    2b78:	mov    edi,0x1
    2b7d:	xor    eax,eax
    2b7f:	push   QWORD PTR [rsp+0x70]
    2b83:	lea    rcx,[rip+0x91e]        # 34a8 <_IO_stdin_used+0x4a8>
    2b8a:	call   1ff0 <log_message>
    2b8f:	pop    rax
    2b90:	pop    rdx
    2b91:	mov    r9,QWORD PTR [rsp+0x8]
    2b96:	jmp    2ae7 <parse_json_object+0x87>
    2b9b:	nop    DWORD PTR [rax+rax*1+0x0]
    first_child = parse_json_children(arena, parser, JSON_TOKEN_CLOSE_SQUARE_BRACE, has_keys);
    2ba0:	xor    ecx,ecx
    2ba2:	mov    edx,0x4
    2ba7:	mov    rsi,rdi
    2baa:	mov    rdi,r9
    2bad:	mov    QWORD PTR [rsp+0x8],r9
    2bb2:	call   2720 <parse_json_children>
    2bb7:	mov    r9,QWORD PTR [rsp+0x8]
    2bbc:	mov    rbx,rax
    2bbf:	jmp    2ae9 <parse_json_object+0x89>
    2bc4:	nop
    2bc5:	data16 cs nop WORD PTR [rax+rax*1+0x0]

0000000000002bd0 <json_token_type_is_value_type>:
  b32 is_value_type = (type == JSON_TOKEN_STRING ||
    2bd0:	sub    edi,0x7
                       type == JSON_TOKEN_NULL   ||
    2bd3:	xor    eax,eax
    2bd5:	cmp    edi,0x4
    2bd8:	setbe  al
}
    2bdb:	ret
    2bdc:	nop    DWORD PTR [rax+0x0]

0000000000002be0 <json_object_to_f64>:
  ASSERT(object, "Must pass valid object to f64 conversion");
    2be0:	test   rdi,rdi
    2be3:	je     1234 <json_object_to_f64.cold>

  String val = object->value;
    2be9:	mov    rcx,QWORD PTR [rdi+0x18]
  // Get sign.
  usize at = 0;

  f64 sign = 1.0;
  if (val.count > at && val.data[at] == '-')
    2bed:	pxor   xmm0,xmm0
    2bf1:	test   rcx,rcx
    2bf4:	je     2c7f <json_object_to_f64+0x9f>
  String val = object->value;
    2bfa:	mov    rsi,QWORD PTR [rdi+0x10]
  if (val.count > at && val.data[at] == '-')
    2bfe:	cmp    BYTE PTR [rsi],0x2d
    2c01:	je     2c80 <json_object_to_f64+0xa0>
  f64 sign = 1.0;
    2c03:	movsd  xmm4,QWORD PTR [rip+0xd65]        # 3970 <__PRETTY_FUNCTION__.9+0x20>
  usize at = 0;
    2c0b:	xor    edx,edx
  {
    u8 digit = val.data[at] - (u8)'0';
    if (digit < 10)
    {
      // We go left to right so each previous result is 10 times bigger
      result = 10 * result + (f64)digit;
    2c0d:	movsd  xmm2,QWORD PTR [rip+0xd73]        # 3988 <__PRETTY_FUNCTION__.9+0x38>
  f64 result = 0.0;
    2c15:	pxor   xmm0,xmm0
    2c19:	jmp    2c5c <json_object_to_f64+0x7c>
    2c1b:	nop    DWORD PTR [rax+0x0]
    2c1f:	data16 cs nop WORD PTR [rax+rax*1+0x0]
    2c2a:	data16 cs nop WORD PTR [rax+rax*1+0x0]
    2c35:	data16 cs nop WORD PTR [rax+rax*1+0x0]
      result = 10 * result + (f64)digit;
    2c40:	mulsd  xmm0,xmm2
    2c44:	movzx  eax,al
    2c47:	pxor   xmm1,xmm1
      at += 1;
    2c4b:	add    rdx,0x1
      result = 10 * result + (f64)digit;
    2c4f:	cvtsi2sd xmm1,eax
    2c53:	addsd  xmm0,xmm1
  while (at < val.count)
    2c57:	cmp    rdx,rcx
    2c5a:	jae    2c72 <json_object_to_f64+0x92>
    u8 digit = val.data[at] - (u8)'0';
    2c5c:	movzx  eax,BYTE PTR [rsi+rdx*1]
    2c60:	sub    eax,0x30
    if (digit < 10)
    2c63:	cmp    al,0x9
    2c65:	jbe    2c40 <json_object_to_f64+0x60>
      break;
    }
  }

  // After decimal (if there)
  if (at < val.count && val.data[at] == '.')
    2c67:	cmp    rdx,rcx
    2c6a:	jae    2c72 <json_object_to_f64+0x92>
    2c6c:	cmp    BYTE PTR [rsi+rdx*1],0x2e
    2c70:	je     2ca0 <json_object_to_f64+0xc0>
        break;
      }
    }
  }

  return sign * result;
    2c72:	mulsd  xmm0,xmm4
    2c76:	ret
  while (at < val.count)
    2c77:	movsd  xmm0,QWORD PTR [rip+0xd01]        # 3980 <__PRETTY_FUNCTION__.9+0x30>
}
    2c7f:	ret
  while (at < val.count)
    2c80:	cmp    rcx,0x1
    2c84:	je     2c77 <json_object_to_f64+0x97>
    2c86:	movsd  xmm4,QWORD PTR [rip+0xcda]        # 3968 <__PRETTY_FUNCTION__.9+0x18>
    2c8e:	mov    edx,0x1
    2c93:	jmp    2c0d <json_object_to_f64+0x2d>
    2c98:	nop    DWORD PTR [rax+rax*1+0x0]
    at += 1;
    2ca0:	add    rdx,0x1
    while (at < val.count)
    2ca4:	cmp    rdx,rcx
    2ca7:	jae    2c72 <json_object_to_f64+0x92>
    f64 factor = 1.0 / 10.0;
    2ca9:	movsd  xmm3,QWORD PTR [rip+0xcc7]        # 3978 <__PRETTY_FUNCTION__.9+0x28>
    2cb1:	movapd xmm2,xmm3
    2cb5:	jmp    2ce0 <json_object_to_f64+0x100>
    2cb7:	nop    WORD PTR [rax+rax*1+0x0]
        result = result + factor * (f64)digit;
    2cc0:	movzx  eax,al
    2cc3:	pxor   xmm1,xmm1
        at += 1;
    2cc7:	add    rdx,0x1
        result = result + factor * (f64)digit;
    2ccb:	cvtsi2sd xmm1,eax
    2ccf:	mulsd  xmm1,xmm2
        factor *= 1.0 / 10.0;
    2cd3:	mulsd  xmm2,xmm3
        result = result + factor * (f64)digit;
    2cd7:	addsd  xmm0,xmm1
    while (at < val.count)
    2cdb:	cmp    rdx,rcx
    2cde:	jae    2c72 <json_object_to_f64+0x92>
      u8 digit = val.data[at] - (u8)'0';
    2ce0:	movzx  eax,BYTE PTR [rsi+rdx*1]
    2ce4:	sub    eax,0x30
      if (digit < 10)
    2ce7:	cmp    al,0x9
    2ce9:	jbe    2cc0 <json_object_to_f64+0xe0>
    2ceb:	jmp    2c72 <json_object_to_f64+0x92>

Disassembly of section .fini:

0000000000002cf0 <_fini>:
    2cf0:	endbr64
    2cf4:	sub    rsp,0x8
    2cf8:	add    rsp,0x8
    2cfc:	ret

calc.x:     file format elf64-x86-64


Disassembly of section .init:

0000000000001000 <_init>:
    1000:	endbr64
    1004:	sub    rsp,0x8
    1008:	mov    rax,QWORD PTR [rip+0x3fb9]        # 4fc8 <__gmon_start__@Base>
    100f:	test   rax,rax
    1012:	je     1016 <_init+0x16>
    1014:	call   rax
    1016:	add    rsp,0x8
    101a:	ret

Disassembly of section .plt:

0000000000001020 <free@plt-0x10>:
    1020:	push   QWORD PTR [rip+0x3fca]        # 4ff0 <_GLOBAL_OFFSET_TABLE_+0x8>
    1026:	jmp    QWORD PTR [rip+0x3fcc]        # 4ff8 <_GLOBAL_OFFSET_TABLE_+0x10>
    102c:	nop    DWORD PTR [rax+0x0]

0000000000001030 <free@plt>:
    1030:	jmp    QWORD PTR [rip+0x3fca]        # 5000 <free@GLIBC_2.2.5>
    1036:	push   0x0
    103b:	jmp    1020 <_init+0x20>

0000000000001040 <fread@plt>:
    1040:	jmp    QWORD PTR [rip+0x3fc2]        # 5008 <fread@GLIBC_2.2.5>
    1046:	push   0x1
    104b:	jmp    1020 <_init+0x20>

0000000000001050 <fclose@plt>:
    1050:	jmp    QWORD PTR [rip+0x3fba]        # 5010 <fclose@GLIBC_2.2.5>
    1056:	push   0x2
    105b:	jmp    1020 <_init+0x20>

0000000000001060 <__stack_chk_fail@plt>:
    1060:	jmp    QWORD PTR [rip+0x3fb2]        # 5018 <__stack_chk_fail@GLIBC_2.4>
    1066:	push   0x3
    106b:	jmp    1020 <_init+0x20>

0000000000001070 <printf@plt>:
    1070:	jmp    QWORD PTR [rip+0x3faa]        # 5020 <printf@GLIBC_2.2.5>
    1076:	push   0x4
    107b:	jmp    1020 <_init+0x20>

0000000000001080 <gettimeofday@plt>:
    1080:	jmp    QWORD PTR [rip+0x3fa2]        # 5028 <gettimeofday@GLIBC_2.2.5>
    1086:	push   0x5
    108b:	jmp    1020 <_init+0x20>

0000000000001090 <__assert_fail@plt>:
    1090:	jmp    QWORD PTR [rip+0x3f9a]        # 5030 <__assert_fail@GLIBC_2.2.5>
    1096:	push   0x6
    109b:	jmp    1020 <_init+0x20>

00000000000010a0 <memset@plt>:
    10a0:	jmp    QWORD PTR [rip+0x3f92]        # 5038 <memset@GLIBC_2.2.5>
    10a6:	push   0x7
    10ab:	jmp    1020 <_init+0x20>

00000000000010b0 <cos@plt>:
    10b0:	jmp    QWORD PTR [rip+0x3f8a]        # 5040 <cos@GLIBC_2.2.5>
    10b6:	push   0x8
    10bb:	jmp    1020 <_init+0x20>

00000000000010c0 <fputc@plt>:
    10c0:	jmp    QWORD PTR [rip+0x3f82]        # 5048 <fputc@GLIBC_2.2.5>
    10c6:	push   0x9
    10cb:	jmp    1020 <_init+0x20>

00000000000010d0 <memcmp@plt>:
    10d0:	jmp    QWORD PTR [rip+0x3f7a]        # 5050 <memcmp@GLIBC_2.2.5>
    10d6:	push   0xa
    10db:	jmp    1020 <_init+0x20>

00000000000010e0 <calloc@plt>:
    10e0:	jmp    QWORD PTR [rip+0x3f72]        # 5058 <calloc@GLIBC_2.2.5>
    10e6:	push   0xb
    10eb:	jmp    1020 <_init+0x20>

00000000000010f0 <fprintf@plt>:
    10f0:	jmp    QWORD PTR [rip+0x3f6a]        # 5060 <fprintf@GLIBC_2.2.5>
    10f6:	push   0xc
    10fb:	jmp    1020 <_init+0x20>

0000000000001100 <stat@plt>:
    1100:	jmp    QWORD PTR [rip+0x3f62]        # 5068 <stat@GLIBC_2.33>
    1106:	push   0xd
    110b:	jmp    1020 <_init+0x20>

0000000000001110 <fopen@plt>:
    1110:	jmp    QWORD PTR [rip+0x3f5a]        # 5070 <fopen@GLIBC_2.2.5>
    1116:	push   0xe
    111b:	jmp    1020 <_init+0x20>

0000000000001120 <vfprintf@plt>:
    1120:	jmp    QWORD PTR [rip+0x3f52]        # 5078 <vfprintf@GLIBC_2.2.5>
    1126:	push   0xf
    112b:	jmp    1020 <_init+0x20>

0000000000001130 <sin@plt>:
    1130:	jmp    QWORD PTR [rip+0x3f4a]        # 5080 <sin@GLIBC_2.2.5>
    1136:	push   0x10
    113b:	jmp    1020 <_init+0x20>

0000000000001140 <asin@plt>:
    1140:	jmp    QWORD PTR [rip+0x3f42]        # 5088 <asin@GLIBC_2.2.5>
    1146:	push   0x11
    114b:	jmp    1020 <_init+0x20>

0000000000001150 <exit@plt>:
    1150:	jmp    QWORD PTR [rip+0x3f3a]        # 5090 <exit@GLIBC_2.2.5>
    1156:	push   0x12
    115b:	jmp    1020 <_init+0x20>

0000000000001160 <sqrt@plt>:
    1160:	jmp    QWORD PTR [rip+0x3f32]        # 5098 <sqrt@GLIBC_2.2.5>
    1166:	push   0x13
    116b:	jmp    1020 <_init+0x20>

Disassembly of section .text:

0000000000001180 <parser_at.part.0>:
  String source;
  usize  at;
};

static
u8 *parser_at(JSON_Parser *parser)
    1180:	push   rax
{
  ASSERT(parser->at < parser->source.count, "Attempted to read past parser source");
    1181:	lea    rcx,[rip+0x2790]        # 3918 <__PRETTY_FUNCTION__.6>
    1188:	mov    edx,0x2f
    118d:	lea    rsi,[rip+0x1e70]        # 3004 <_IO_stdin_used+0x4>
    1194:	lea    rdi,[rip+0x2075]        # 3210 <_IO_stdin_used+0x210>
    119b:	call   1090 <__assert_fail@plt>

00000000000011a0 <arena_pop_to.part.0>:
  arena->next_offset = aligned_offset + size;

  return ptr;
}

void arena_pop_to(Arena *arena, isize offset)
    11a0:	push   rax
{
  ASSERT(offset < arena->next_offset,
    11a1:	lea    rcx,[rip+0x2780]        # 3928 <__PRETTY_FUNCTION__.7>
    11a8:	mov    edx,0x217
    11ad:	lea    rsi,[rip+0x1e61]        # 3015 <_IO_stdin_used+0x15>
    11b4:	lea    rdi,[rip+0x20a5]        # 3260 <_IO_stdin_used+0x260>
    11bb:	call   1090 <__assert_fail@plt>

00000000000011c0 <arena_make_backed.cold>:
  ASSERT(backing_buffer != NULL, "Backing buffer for arena must not be NULL!");
    11c0:	lea    rcx,[rip+0x2789]        # 3950 <__PRETTY_FUNCTION__.9>
    11c7:	mov    edx,0x1e5
    11cc:	lea    rsi,[rip+0x1e42]        # 3015 <_IO_stdin_used+0x15>
    11d3:	lea    rdi,[rip+0x2106]        # 32e0 <_IO_stdin_used+0x2e0>
    11da:	call   1090 <__assert_fail@plt>
  ASSERT(backing_size   != 0,    "Backing buffer size for arena must not be 0!");
    11df:	lea    rcx,[rip+0x276a]        # 3950 <__PRETTY_FUNCTION__.9>
    11e6:	mov    edx,0x1e6
    11eb:	lea    rsi,[rip+0x1e23]        # 3015 <_IO_stdin_used+0x15>
    11f2:	lea    rdi,[rip+0x2137]        # 3330 <_IO_stdin_used+0x330>
    11f9:	call   1090 <__assert_fail@plt>

00000000000011fe <arena_alloc.cold>:
  ASSERT(arena->base != NULL, "Arena memory is null");
    11fe:	lea    rcx,[rip+0x2733]        # 3938 <__PRETTY_FUNCTION__.8>
    1205:	mov    edx,0x1fe
    120a:	lea    rsi,[rip+0x1e04]        # 3015 <_IO_stdin_used+0x15>
    1211:	lea    rdi,[rip+0x2160]        # 3378 <_IO_stdin_used+0x378>
    1218:	call   1090 <__assert_fail@plt>

000000000000121d <arena_pop_to.cold>:
{
    121d:	push   rax
    121e:	call   11a0 <arena_pop_to.part.0>

0000000000001223 <arena_pop.cold>:
  // Should we zero out the memory?
  arena->next_offset = offset;
}

void arena_pop(Arena *arena, isize size)
{
    1223:	push   rax
    1224:	call   11a0 <arena_pop_to.part.0>

0000000000001229 <scratch_end.cold>:
  Scratch scratch = {.arena = arena, .offset_save = arena->next_offset};
  return scratch;
}

void scratch_end(Scratch *scratch)
{
    1229:	push   rax
    122a:	call   11a0 <arena_pop_to.part.0>

000000000000122f <get_json_token.cold>:
    122f:	call   1180 <parser_at.part.0>

0000000000001234 <json_object_to_f64.cold>:

  return result;
}

f64 json_object_to_f64(JSON_Object *object)
{
    1234:	push   rax
  ASSERT(object, "Must pass valid object to f64 conversion");
    1235:	lea    rcx,[rip+0x26c4]        # 3900 <__PRETTY_FUNCTION__.5>
    123c:	mov    edx,0x1c2
    1241:	lea    rsi,[rip+0x1dbc]        # 3004 <_IO_stdin_used+0x4>
    1248:	lea    rdi,[rip+0x22a9]        # 34f8 <_IO_stdin_used+0x4f8>
    124f:	call   1090 <__assert_fail@plt>
    1254:	cs nop WORD PTR [rax+rax*1+0x0]
    125e:	xchg   ax,ax

0000000000001260 <main>:

  return (fabs(a) - fabs(b)) <= epsilon;
}

int main(int args_count, char **args)
{
    1260:	push   r15
    1262:	push   r14
    1264:	push   r13
    1266:	push   r12
    1268:	push   rbp
    1269:	push   rbx
    126a:	sub    rsp,0x208
    1271:	mov    QWORD PTR [rsp+0x30],rsi
    1276:	mov    rax,QWORD PTR fs:0x28
    127f:	mov    QWORD PTR [rsp+0x1f8],rax
    1287:	xor    eax,eax
  if (args_count != DESIRED_ARG_COUNT)
    1289:	cmp    edi,0x3
    128c:	je     12cd <main+0x6d>
  {
    printf("Usage: %s [haversine_json] [solution_dump]\n", args[0]);
    128e:	mov    rsi,QWORD PTR [rsi]
    1291:	lea    rdi,[rip+0x2298]        # 3530 <_IO_stdin_used+0x530>
    1298:	xor    eax,eax
    129a:	call   1070 <printf@plt>
    return 1;
    129f:	mov    eax,0x1
  {
    arena_free(&arena);
  }

  end_profiling();
}
    12a4:	mov    rdx,QWORD PTR [rsp+0x1f8]
    12ac:	sub    rdx,QWORD PTR fs:0x28
    12b5:	jne    1d6d <main+0xb0d>
    12bb:	add    rsp,0x208
    12c2:	pop    rbx
    12c3:	pop    rbp
    12c4:	pop    r12
    12c6:	pop    r13
    12c8:	pop    r14
    12ca:	pop    r15
    12cc:	ret
/* rdtsc */
extern __inline unsigned long long
__attribute__((__gnu_inline__, __always_inline__, __artificial__))
__rdtsc (void)
{
  return __builtin_ia32_rdtsc ();
    12cd:	rdtsc
static Profiler g_profiler;

static
void begin_profiling()
{
  g_profiler = (Profiler)
    12cf:	xor    esi,esi
    12d1:	lea    rdi,[rip+0x3e48]        # 5120 <g_profiler>
    12d8:	shl    rdx,0x20
    12dc:	mov    rbx,rax
    12df:	or     rbx,rdx
    12e2:	mov    edx,0x30010
    12e7:	call   10a0 <memset@plt>
  Arena arena = {0};
    12ec:	xor    eax,eax
    12ee:	mov    ecx,0x8
    12f3:	lea    rdi,[rsp+0xa0]
    12fb:	rep stos DWORD PTR [rdi],eax
  arena = arena_make(GB(4));
    12fd:	mov    esi,0x1
    1302:	lea    rdi,[rsp+0x50]
    1307:	mov    QWORD PTR [rip+0x3e12],rbx        # 5120 <g_profiler>
    130e:	shl    rsi,0x20
    1312:	call   21e0 <arena_make>
    1317:	movdqu xmm0,XMMWORD PTR [rsp+0x50]
    .old_elapsed_inclusive = g_profiler.zones[zone_index].elapsed_inclusive, // Save the original so it get overwritten in the case of children
    .bytes_processed = bytes_processed,
  };

  // Push parent
  g_profiler.current_parent_zone = zone_index;
    131d:	mov    QWORD PTR [rip+0x3e00],0x5        # 5128 <g_profiler+0x8>
    1328:	movaps XMMWORD PTR [rsp+0xa0],xmm0
    1330:	movdqu xmm0,XMMWORD PTR [rsp+0x60]
    1336:	movaps XMMWORD PTR [rsp+0xb0],xmm0
    133e:	rdtsc

  // Last!
  pass.start = read_cpu_timer();

  return pass;
    1340:	xor    r9d,r9d
    1343:	xor    r8d,r8d
    1346:	lea    rcx,[rip+0x1d33]        # 3080 <_IO_stdin_used+0x80>
    134d:	shl    rdx,0x20
    source = read_file_to_arena(&arena, args[1]);
    1351:	lea    r15,[rsp+0xa0]
    1359:	mov    QWORD PTR [rsp+0xc0],rcx
    1361:	or     rax,rdx
    1364:	mov    rdi,r15
    1367:	mov    QWORD PTR [rsp+0xc8],0x4
    1373:	mov    QWORD PTR [rsp+0xd0],rax
    137b:	mov    rax,QWORD PTR [rsp+0x30]
    1380:	mov    QWORD PTR [rsp+0xd8],r8
    1388:	mov    rsi,QWORD PTR [rax+0x8]
    138c:	mov    QWORD PTR [rsp+0xe8],r9
    1394:	mov    QWORD PTR [rsp+0xe0],0x5
    13a0:	mov    QWORD PTR [rsp+0xf0],r9
    13a8:	mov    QWORD PTR [rsp+0x38],r15
    13ad:	call   2340 <read_file_to_arena>
  PROFILE_SCOPE("read")
    13b2:	sub    rsp,0x40
    13b6:	mov    ecx,0xe
    13bb:	lea    rsi,[rsp+0x100]
    13c3:	mov    rdi,rsp
    source = read_file_to_arena(&arena, args[1]);
    13c6:	mov    rbx,rax
    13c9:	mov    rbp,rdx
  PROFILE_SCOPE("read")
    13cc:	rep movs DWORD PTR [rdi],DWORD PTR [rsi]
    13ce:	call   1e80 <__profile_end_pass.constprop.0>
    .parent_index = g_profiler.current_parent_zone,
    13d3:	mov    rcx,QWORD PTR [rip+0x3d4e]        # 5128 <g_profiler+0x8>
  g_profiler.current_parent_zone = zone_index;
    13da:	mov    QWORD PTR [rip+0x3d43],0x6        # 5128 <g_profiler+0x8>
    13e5:	rdtsc
  return pass;
    13e7:	xor    r10d,r10d
    13ea:	lea    rdi,[rip+0x1c94]        # 3085 <_IO_stdin_used+0x85>
    13f1:	shl    rdx,0x20
    13f5:	mov    QWORD PTR [rsp+0x168],rcx
    max_pairs = source.count / min_pair_bytes; // Roughly, overestimate at least
    13fd:	mov    ecx,0x18
    1402:	or     rax,rdx
    1405:	xor    edx,edx
    1407:	mov    QWORD PTR [rsp+0x140],rdi
    pairs = arena_calloc(&arena, max_pairs, Haversine_Pair);
    140f:	mov    rdi,r15
    1412:	movq   xmm0,rax
    max_pairs = source.count / min_pair_bytes; // Roughly, overestimate at least
    1417:	mov    rax,rbp
    141a:	mov    QWORD PTR [rsp+0x170],r10
    1422:	movhps xmm0,QWORD PTR [rip+0x3e3f]        # 5268 <g_profiler+0x148>
    1429:	div    rcx
    142c:	movaps XMMWORD PTR [rsp+0x150],xmm0
    1434:	mov    QWORD PTR [rsp+0x148],0xf
    1440:	mov    QWORD PTR [rsp+0x160],0x6
    pairs = arena_calloc(&arena, max_pairs, Haversine_Pair);
    144c:	mov    edx,0x8
    1451:	add    rsp,0x40
    1455:	mov    rsi,rax
    max_pairs = source.count / min_pair_bytes; // Roughly, overestimate at least
    1458:	mov    r12,rax
    pairs = arena_calloc(&arena, max_pairs, Haversine_Pair);
    145b:	shl    rsi,0x5
    145f:	call   22c0 <arena_alloc>
  PROFILE_SCOPE("haversine alloc")
    1464:	mov    ecx,0xe
    pairs = arena_calloc(&arena, max_pairs, Haversine_Pair);
    1469:	mov    QWORD PTR [rsp+0x20],rax
  PROFILE_SCOPE("haversine alloc")
    146e:	sub    rsp,0x40
    pairs = arena_calloc(&arena, max_pairs, Haversine_Pair);
    1472:	mov    r14,rax
  PROFILE_SCOPE("haversine alloc")
    1475:	lea    rsi,[rsp+0x140]
    147d:	mov    rdi,rsp
    1480:	rep movs DWORD PTR [rdi],DWORD PTR [rsi]
    1482:	call   1e80 <__profile_end_pass.constprop.0>
    .parent_index = g_profiler.current_parent_zone,
    1487:	mov    rcx,QWORD PTR [rip+0x3c9a]        # 5128 <g_profiler+0x8>
  g_profiler.current_parent_zone = zone_index;
    148e:	mov    QWORD PTR [rip+0x3c8f],0x3        # 5128 <g_profiler+0x8>
    1499:	rdtsc
  return pass;
    149b:	xor    r11d,r11d
    149e:	lea    rdi,[rip+0x2443]        # 38e8 <__func__.4>
    14a5:	shl    rdx,0x20
  JSON_Parser parser =
    14a9:	mov    QWORD PTR [rsp+0x1c0],rbx
    14b1:	xor    ebx,ebx
    14b3:	or     rax,rdx
    14b6:	mov    QWORD PTR [rsp+0x230],r11
    14be:	mov    QWORD PTR [rsp+0x200],rdi
    14c6:	movq   xmm0,rax
  JSON_Object *outer = parse_json_object(arena, &parser, (String){0}, get_json_token(&parser));
    14cb:	lea    rdi,[rsp+0xc0]
    14d3:	movhps xmm0,QWORD PTR [rip+0x3cfe]        # 51d8 <g_profiler+0xb8>
    14da:	mov    QWORD PTR [rsp+0x228],rcx
  JSON_Parser parser =
    14e2:	mov    QWORD PTR [rsp+0x1d0],rbx
    14ea:	movaps XMMWORD PTR [rsp+0x210],xmm0
    14f2:	mov    QWORD PTR [rsp+0x208],0xa
    14fe:	mov    QWORD PTR [rsp+0x220],0x3
    150a:	mov    QWORD PTR [rsp+0x1c8],rbp
  JSON_Object *outer = parse_json_object(arena, &parser, (String){0}, get_json_token(&parser));
    1512:	add    rsp,0x40
    1516:	lea    rbx,[rsp+0x180]
    151e:	mov    rsi,rbx
    1521:	mov    QWORD PTR [rsp+0x40],rbx
    1526:	call   2490 <get_json_token>
    152b:	sub    rsp,0x20
    152f:	xor    edx,edx
    1531:	mov    rsi,rbx
    1534:	movdqa xmm0,XMMWORD PTR [rsp+0xa0]
    153d:	mov    rax,QWORD PTR [rsp+0xb0]
    1545:	xor    ecx,ecx
    1547:	mov    rdi,r15
    154a:	movups XMMWORD PTR [rsp],xmm0
    154e:	mov    QWORD PTR [rsp+0x10],rax
    1553:	call   2ab0 <parse_json_object>
  profile_end_func();
    1558:	sub    rsp,0x20
    155c:	mov    ecx,0xe
    1561:	lea    rsi,[rsp+0x200]
    1569:	mov    rdi,rsp
  JSON_Object *outer = parse_json_object(arena, &parser, (String){0}, get_json_token(&parser));
    156c:	mov    r10,rax
  profile_end_func();
    156f:	mov    QWORD PTR [rsp+0x88],rsi
    1577:	rep movs DWORD PTR [rdi],DWORD PTR [rsi]
    1579:	call   1e80 <__profile_end_pass.constprop.0>
  JSON_Object *pairs_object = lookup_json_object(root, String("pairs"));
    157e:	add    rsp,0x40
    1582:	mov    edx,0x5
    1587:	mov    rdi,r10
    158a:	lea    rsi,[rip+0x1b04]        # 3095 <_IO_stdin_used+0x95>
    1591:	call   1ef0 <lookup_json_object>
    for (JSON_Object *cursor = pairs_object->first_child; cursor && pair_count < max_pairs; cursor = cursor->next_sibling)
    1596:	mov    rbx,QWORD PTR [rax+0x20]
    159a:	test   rbx,rbx
    159d:	je     1ceb <main+0xa8b>
    15a3:	cmp    rbp,0x17
    15a7:	jbe    1ceb <main+0xa8b>
    15ad:	mov    rbp,r14
    15b0:	mov    r15d,0x1
    15b6:	lea    r13,[rip+0x1ade]        # 309b <_IO_stdin_used+0x9b>
    15bd:	nop    DWORD PTR [rax]
    .old_elapsed_inclusive = g_profiler.zones[zone_index].elapsed_inclusive, // Save the original so it get overwritten in the case of children
    15c0:	lea    rax,[rip+0x3b59]        # 5120 <g_profiler>
    15c7:	mov    rcx,QWORD PTR [rax+0x178]
    .parent_index = g_profiler.current_parent_zone,
    15ce:	mov    rsi,QWORD PTR [rax+0x8]
  g_profiler.current_parent_zone = zone_index;
    15d2:	mov    QWORD PTR [rip+0x3b4b],0x7        # 5128 <g_profiler+0x8>
    .old_elapsed_inclusive = g_profiler.zones[zone_index].elapsed_inclusive, // Save the original so it get overwritten in the case of children
    15dd:	mov    QWORD PTR [rsp+0x8],rcx
    15e2:	rdtsc
    15e4:	shl    rdx,0x20
  return pass;
    15e8:	mov    QWORD PTR [rsp+0x1e8],rsi
          .x0 = json_object_to_f64(lookup_json_object(cursor, String("x0"))),
    15f0:	mov    rdi,rbx
    15f3:	lea    rsi,[rip+0x1aaf]        # 30a9 <_IO_stdin_used+0xa9>
    15fa:	or     rax,rdx
    15fd:	mov    edx,0x2
    1602:	mov    QWORD PTR [rsp+0x1c0],r13
    160a:	mov    QWORD PTR [rsp+0x1c8],0xd
    1616:	movq   xmm0,rax
    161b:	movhps xmm0,QWORD PTR [rsp+0x8]
    1620:	mov    QWORD PTR [rsp+0x1e0],0x7
    162c:	movaps XMMWORD PTR [rsp+0x1d0],xmm0
    1634:	mov    QWORD PTR [rsp+0x1f0],0x0
    1640:	call   1ef0 <lookup_json_object>
    1645:	mov    rdi,rax
    1648:	call   2c50 <json_object_to_f64>
          .y0 = json_object_to_f64(lookup_json_object(cursor, String("y0"))),
    164d:	lea    rsi,[rip+0x1a58]        # 30ac <_IO_stdin_used+0xac>
    1654:	mov    edx,0x2
    1659:	mov    rdi,rbx
          .x0 = json_object_to_f64(lookup_json_object(cursor, String("x0"))),
    165c:	movsd  QWORD PTR [rsp+0x8],xmm0
          .y0 = json_object_to_f64(lookup_json_object(cursor, String("y0"))),
    1662:	call   1ef0 <lookup_json_object>
    1667:	mov    rdi,rax
    166a:	call   2c50 <json_object_to_f64>
    166f:	movsd  xmm1,QWORD PTR [rsp+0x8]
          .x1 = json_object_to_f64(lookup_json_object(cursor, String("x1"))),
    1675:	mov    edx,0x2
    167a:	mov    rdi,rbx
    167d:	lea    rsi,[rip+0x1a2b]        # 30af <_IO_stdin_used+0xaf>
    1684:	unpcklpd xmm1,xmm0
    1688:	movaps XMMWORD PTR [rsp+0x10],xmm1
    168d:	call   1ef0 <lookup_json_object>
    1692:	mov    rdi,rax
    1695:	call   2c50 <json_object_to_f64>
          .y1 = json_object_to_f64(lookup_json_object(cursor, String("y1"))),
    169a:	lea    rsi,[rip+0x1a11]        # 30b2 <_IO_stdin_used+0xb2>
    16a1:	mov    edx,0x2
    16a6:	mov    rdi,rbx
          .x1 = json_object_to_f64(lookup_json_object(cursor, String("x1"))),
    16a9:	movsd  QWORD PTR [rsp+0x8],xmm0
          .y1 = json_object_to_f64(lookup_json_object(cursor, String("y1"))),
    16af:	call   1ef0 <lookup_json_object>
    16b4:	mov    rdi,rax
    16b7:	call   2c50 <json_object_to_f64>
        pairs[pair_count] = pair;
    16bc:	movsd  xmm4,QWORD PTR [rsp+0x8]
    16c2:	movapd xmm1,XMMWORD PTR [rsp+0x10]
      PROFILE_SCOPE("child convert")
    16c8:	sub    rsp,0x40
    16cc:	mov    rax,QWORD PTR [rsp+0x230]
        pairs[pair_count] = pair;
    16d4:	unpcklpd xmm4,xmm0
    16d8:	movups XMMWORD PTR [rbp+0x0],xmm1
      PROFILE_SCOPE("child convert")
    16dc:	movdqa xmm0,XMMWORD PTR [rsp+0x200]
        pairs[pair_count] = pair;
    16e5:	movups XMMWORD PTR [rbp+0x10],xmm4
      PROFILE_SCOPE("child convert")
    16e9:	movups XMMWORD PTR [rsp],xmm0
    16ed:	movdqa xmm0,XMMWORD PTR [rsp+0x210]
    16f6:	mov    QWORD PTR [rsp+0x30],rax
    16fb:	movups XMMWORD PTR [rsp+0x10],xmm0
    1700:	movdqa xmm0,XMMWORD PTR [rsp+0x220]
    1709:	movups XMMWORD PTR [rsp+0x20],xmm0
    170e:	call   1e80 <__profile_end_pass.constprop.0>
    for (JSON_Object *cursor = pairs_object->first_child; cursor && pair_count < max_pairs; cursor = cursor->next_sibling)
    1713:	mov    rbx,QWORD PTR [rbx+0x28]
    1717:	add    rsp,0x40
    171b:	mov    rsi,r15
    171e:	test   rbx,rbx
    1721:	setne  dl
    1724:	cmp    r15,r12
    1727:	setb   al
    172a:	add    r15,0x1
    172e:	add    rbp,0x20
    1732:	test   dl,al
    1734:	jne    15c0 <main+0x360>
    .parent_index = g_profiler.current_parent_zone,
    173a:	mov    rdi,QWORD PTR [rip+0x39e7]        # 5128 <g_profiler+0x8>
        pair_count += 1;
    1741:	mov    ebx,esi
  g_profiler.current_parent_zone = zone_index;
    1743:	mov    QWORD PTR [rip+0x39da],0x8        # 5128 <g_profiler+0x8>
    174e:	rdtsc
  return pass;
    1750:	lea    rcx,[rip+0x195e]        # 30b5 <_IO_stdin_used+0xb5>
    1757:	mov    rbp,QWORD PTR [rsp+0x20]
    175c:	mov    QWORD PTR [rsp+0x168],rdi
    1764:	xor    edi,edi
    1766:	shl    rdx,0x20
    176a:	mov    QWORD PTR [rsp+0x140],rcx
    1772:	or     rax,rdx
    1775:	shl    rsi,0x5
    1779:	mov    QWORD PTR [rsp+0x170],rdi
    1781:	movq   xmm0,rax
    1786:	add    rbp,rsi
    1789:	movhps xmm0,QWORD PTR [rip+0x3b38]        # 52c8 <g_profiler+0x1a8>
    1790:	mov    QWORD PTR [rsp+0x148],0x3
    179c:	mov    QWORD PTR [rsp+0x160],0x8
  f64 sum = 0.0;
    17a8:	mov    QWORD PTR [rsp+0x8],0x0
    17b1:	movaps XMMWORD PTR [rsp+0x150],xmm0
    17b9:	nop    DWORD PTR [rax+0x0]
      f64 result = reference_haversine(pairs[i].x0,pairs[i].y0,pairs[i].x1,pairs[i].y1, earth_radius);
    17c0:	movsd  xmm1,QWORD PTR [r14+0x18]
    17c6:	movsd  xmm3,QWORD PTR [r14+0x8]
  f64 lat1 = y0;
  f64 lat2 = y1;
  f64 lon1 = x0;
  f64 lon2 = x1;

  f64 d_lat = to_radians(lat2 - lat1);
    17cc:	movapd xmm0,xmm1
    17d0:	movsd  QWORD PTR [rsp+0x20],xmm1
    17d6:	subsd  xmm0,xmm3
  return degrees / PI;
    17da:	divsd  xmm0,QWORD PTR [rip+0x21ae]        # 3990 <__PRETTY_FUNCTION__.9+0x40>
  f64 d_lat = to_radians(lat2 - lat1);
    17e2:	movsd  QWORD PTR [rsp+0x10],xmm3
  f64 d_lon = to_radians(lon2 - lon1);
  lat1 = to_radians(lat1);
  lat2 = to_radians(lat2);

  f64 a = square(sin(d_lat/2.0)) + cos(lat1) * cos(lat2) * square(sin(d_lon/2.0));
    17e8:	mulsd  xmm0,QWORD PTR [rip+0x21a8]        # 3998 <__PRETTY_FUNCTION__.9+0x48>
    17f0:	call   1130 <sin@plt>
  return degrees / PI;
    17f5:	movsd  xmm3,QWORD PTR [rsp+0x10]
    17fb:	divsd  xmm3,QWORD PTR [rip+0x218d]        # 3990 <__PRETTY_FUNCTION__.9+0x40>
  f64 a = square(sin(d_lat/2.0)) + cos(lat1) * cos(lat2) * square(sin(d_lon/2.0));
    1803:	movsd  QWORD PTR [rsp+0x28],xmm0
  return degrees / PI;
    1809:	movapd xmm0,xmm3
  f64 a = square(sin(d_lat/2.0)) + cos(lat1) * cos(lat2) * square(sin(d_lon/2.0));
    180d:	call   10b0 <cos@plt>
  return degrees / PI;
    1812:	movsd  xmm1,QWORD PTR [rsp+0x20]
    1818:	divsd  xmm1,QWORD PTR [rip+0x2170]        # 3990 <__PRETTY_FUNCTION__.9+0x40>
  f64 a = square(sin(d_lat/2.0)) + cos(lat1) * cos(lat2) * square(sin(d_lon/2.0));
    1820:	movsd  QWORD PTR [rsp+0x10],xmm0
  return degrees / PI;
    1826:	movapd xmm0,xmm1
  f64 a = square(sin(d_lat/2.0)) + cos(lat1) * cos(lat2) * square(sin(d_lon/2.0));
    182a:	call   10b0 <cos@plt>
    182f:	movsd  QWORD PTR [rsp+0x20],xmm0
  f64 d_lon = to_radians(lon2 - lon1);
    1835:	movsd  xmm0,QWORD PTR [r14+0x10]
    183b:	subsd  xmm0,QWORD PTR [r14]
  return degrees / PI;
    1840:	divsd  xmm0,QWORD PTR [rip+0x2148]        # 3990 <__PRETTY_FUNCTION__.9+0x40>
  f64 a = square(sin(d_lat/2.0)) + cos(lat1) * cos(lat2) * square(sin(d_lon/2.0));
    1848:	mulsd  xmm0,QWORD PTR [rip+0x2148]        # 3998 <__PRETTY_FUNCTION__.9+0x48>
    1850:	call   1130 <sin@plt>
    1855:	movsd  xmm1,QWORD PTR [rsp+0x10]
    185b:	mulsd  xmm1,QWORD PTR [rsp+0x20]
    1861:	pxor   xmm7,xmm7
  return x * x;
    1865:	mulsd  xmm0,xmm0
    1869:	movsd  xmm2,QWORD PTR [rsp+0x28]
    186f:	mulsd  xmm2,xmm2
  f64 a = square(sin(d_lat/2.0)) + cos(lat1) * cos(lat2) * square(sin(d_lon/2.0));
    1873:	mulsd  xmm0,xmm1
    1877:	addsd  xmm0,xmm2
  f64 c = 2.0 * asin(sqrt(a));
    187b:	ucomisd xmm7,xmm0
    187f:	ja     1d63 <main+0xb03>
    1885:	sqrtsd xmm0,xmm0
    1889:	call   1140 <asin@plt>
    for (usize i = 0; i < pair_count; i++)
    188e:	add    r14,0x20
    1892:	addsd  xmm0,xmm0

  f64 result = sphere_radius * c;
    1896:	mulsd  xmm0,QWORD PTR [rip+0x2102]        # 39a0 <__PRETTY_FUNCTION__.9+0x50>
      sum += result;
    189e:	addsd  xmm0,QWORD PTR [rsp+0x8]
    18a4:	movsd  QWORD PTR [rsp+0x8],xmm0
    for (usize i = 0; i < pair_count; i++)
    18aa:	cmp    rbp,r14
    18ad:	jne    17c0 <main+0x560>
  PROFILE_SCOPE("sum")
    18b3:	sub    rsp,0x40
    18b7:	mov    ecx,0xe
    18bc:	lea    rsi,[rsp+0x180]
    18c4:	mov    rdi,rsp
    18c7:	rep movs DWORD PTR [rdi],DWORD PTR [rsi]
    18c9:	call   1e80 <__profile_end_pass.constprop.0>
    .parent_index = g_profiler.current_parent_zone,
    18ce:	mov    rcx,QWORD PTR [rip+0x3853]        # 5128 <g_profiler+0x8>
  g_profiler.current_parent_zone = zone_index;
    18d5:	mov    QWORD PTR [rip+0x3848],0x9        # 5128 <g_profiler+0x8>
    18e0:	rdtsc
  return pass;
    18e2:	lea    rdi,[rip+0x17d0]        # 30b9 <_IO_stdin_used+0xb9>
    18e9:	shl    rdx,0x20
    18ed:	mov    QWORD PTR [rsp+0x1e8],rcx
    18f5:	xor    ecx,ecx
    18f7:	or     rax,rdx
    18fa:	mov    QWORD PTR [rsp+0x1c0],rdi
    1902:	mov    QWORD PTR [rsp+0x1f0],rcx
    190a:	movq   xmm0,rax
    190f:	movhps xmm0,QWORD PTR [rip+0x39e2]        # 52f8 <g_profiler+0x1d8>
    1916:	mov    QWORD PTR [rsp+0x1c8],0x5
    1922:	mov    QWORD PTR [rsp+0x1e0],0x9
    192e:	movaps XMMWORD PTR [rsp+0x1d0],xmm0
    String solution_dump = read_file_to_arena(&arena, args[2]);
    1936:	mov    rax,QWORD PTR [rsp+0x70]
    193b:	add    rsp,0x40
    193f:	mov    rdi,QWORD PTR [rsp+0x38]
    1944:	mov    rsi,QWORD PTR [rax+0x10]
    1948:	call   2340 <read_file_to_arena>
    if (solution_dump.count >= sizeof(f64) + sizeof(i32))
    194d:	cmp    rdx,0xb
    1951:	jbe    1c79 <main+0xa19>
      i32 solution_pairs = *(i32 *)(solution_dump.data + sizeof(f64));
    1957:	mov    r8d,DWORD PTR [rax+0x8]
      if (solution_pairs == pair_count)
    195b:	cmp    r8d,ebx
    195e:	jne    1c9d <main+0xa3d>
    sum /= pair_count;
    1964:	movsd  xmm1,QWORD PTR [rsp+0x8]
    196a:	pxor   xmm0,xmm0
      f64 solution_sum   = *(f64 *)solution_dump.data;
    196e:	movsd  xmm2,QWORD PTR [rax]
    sum /= pair_count;
    1972:	cvtsi2sd xmm0,ebx
    1976:	divsd  xmm1,xmm0
  return (fabs(a) - fabs(b)) <= epsilon;
    197a:	movapd xmm0,xmm2
    197e:	andpd  xmm0,XMMWORD PTR [rip+0x203a]        # 39c0 <__PRETTY_FUNCTION__.9+0x70>
    1986:	movapd xmm3,xmm1
    198a:	andpd  xmm3,XMMWORD PTR [rip+0x202e]        # 39c0 <__PRETTY_FUNCTION__.9+0x70>
    1992:	subsd  xmm0,xmm3
        if (epsilon_equal(solution_sum, sum))
    1996:	movsd  xmm3,QWORD PTR [rip+0x200a]        # 39a8 <__PRETTY_FUNCTION__.9+0x58>
    199e:	comisd xmm3,xmm0
          LOG_INFO("Solutions (solution: %f, calculated: %f) match! :)", solution_sum, sum);
    19a2:	movapd xmm0,xmm2
        if (epsilon_equal(solution_sum, sum))
    19a6:	jae    1c03 <main+0x9a3>
          LOG_ERROR("Solution sum (%f) does not match calculated sum (%f)", solution_sum, sum);
    19ac:	mov    edx,0x68
    19b1:	mov    edi,0x1
    19b6:	mov    eax,0x2
    19bb:	lea    rcx,[rip+0x1c26]        # 35e8 <_IO_stdin_used+0x5e8>
    19c2:	lea    rsi,[rip+0x16f6]        # 30bf <_IO_stdin_used+0xbf>
    19c9:	call   2040 <log_message>
  PROFILE_SCOPE("check")
    19ce:	sub    rsp,0x40
    19d2:	mov    ecx,0xe
    19d7:	mov    rsi,QWORD PTR [rsp+0x80]
    19df:	mov    rdi,rsp
    19e2:	rep movs DWORD PTR [rdi],DWORD PTR [rsi]
    19e4:	call   1e80 <__profile_end_pass.constprop.0>
    .parent_index = g_profiler.current_parent_zone,
    19e9:	mov    rcx,QWORD PTR [rip+0x3738]        # 5128 <g_profiler+0x8>
  g_profiler.current_parent_zone = zone_index;
    19f0:	mov    QWORD PTR [rip+0x372d],0xa        # 5128 <g_profiler+0x8>
    19fb:	rdtsc
  return pass;
    19fd:	lea    rdi,[rip+0x16d0]        # 30d4 <_IO_stdin_used+0xd4>
    1a04:	shl    rdx,0x20
    1a08:	mov    QWORD PTR [rsp+0x228],rcx
    1a10:	or     rax,rdx
    1a13:	xor    edx,edx
    1a15:	mov    QWORD PTR [rsp+0x200],rdi
    1a1d:	mov    QWORD PTR [rsp+0x230],rdx
    1a25:	movq   xmm0,rax
    1a2a:	movhps xmm0,QWORD PTR [rip+0x38f7]        # 5328 <g_profiler+0x208>
    1a31:	mov    QWORD PTR [rsp+0x208],0x4
    1a3d:	movaps XMMWORD PTR [rsp+0x210],xmm0
    1a45:	mov    QWORD PTR [rsp+0x220],0xa
    arena_free(&arena);
    1a51:	add    rsp,0x40
    1a55:	mov    rdi,QWORD PTR [rsp+0x38]
    1a5a:	call   2280 <arena_free>
  PROFILE_SCOPE("free")
    1a5f:	sub    rsp,0x40
    1a63:	mov    ecx,0xe
    1a68:	mov    rsi,QWORD PTR [rsp+0x88]
    1a70:	mov    rdi,rsp
    1a73:	rep movs DWORD PTR [rdi],DWORD PTR [rsi]
    1a75:	call   1e80 <__profile_end_pass.constprop.0>
    1a7a:	rdtsc
    1a7c:	shl    rdx,0x20
  if (total_delta)
    1a80:	add    rsp,0x40
    1a84:	or     rax,rdx
    1a87:	sub    rax,QWORD PTR [rip+0x3692]        # 5120 <g_profiler>
    1a8e:	mov    rbx,rax
    1a91:	jne    1a9a <main+0x83a>
    1a93:	xor    eax,eax
    1a95:	jmp    12a4 <main+0x44>
    1a9a:	rdtsc
  gettimeofday(&value, 0);
    1a9c:	xor    esi,esi
    1a9e:	lea    r12,[rsp+0x70]
    1aa3:	mov    r13,rax
    1aa6:	shl    rdx,0x20
    1aaa:	mov    rdi,r12
    1aad:	or     r13,rdx
    1ab0:	call   1080 <gettimeofday@plt>
  u64 result = get_os_timer_freq() * value.tv_sec + value.tv_usec;
    1ab5:	imul   rbp,QWORD PTR [rsp+0x70],0xf4240
    1abe:	add    rbp,QWORD PTR [rsp+0x78]
  while (os_delta < os_wait_time)
    1ac3:	xchg   ax,ax
    1ac5:	data16 cs nop WORD PTR [rax+rax*1+0x0]
  gettimeofday(&value, 0);
    1ad0:	xor    esi,esi
    1ad2:	mov    rdi,r12
    1ad5:	call   1080 <gettimeofday@plt>
  u64 result = get_os_timer_freq() * value.tv_sec + value.tv_usec;
    1ada:	imul   rcx,QWORD PTR [rsp+0x70],0xf4240
    1ae3:	add    rcx,QWORD PTR [rsp+0x78]
    os_delta = os_end - os_start;
    1ae8:	sub    rcx,rbp
  while (os_delta < os_wait_time)
    1aeb:	cmp    rcx,0x1869f
    1af2:	jbe    1ad0 <main+0x870>
    1af4:	rdtsc
    1af6:	shl    rdx,0x20
    1afa:	or     rax,rdx
  cpu_frequency = os_frequency * cpu_delta / os_delta;
    1afd:	xor    edx,edx
  u64 cpu_delta = cpu_end - cpu_start;
    1aff:	sub    rax,r13
  cpu_frequency = os_frequency * cpu_delta / os_delta;
    1b02:	imul   rax,rax,0xf4240
    1b09:	div    rcx
    printf("[PROFILE] Total duration: %lu (%fms @ CPU Frequency: %u)\n", total_delta, (f64)total_delta / (f64)freq * 1000.0, freq);
    1b0c:	test   rbx,rbx
    1b0f:	js     1cc4 <main+0xa64>
    1b15:	pxor   xmm5,xmm5
    1b19:	cvtsi2sd xmm5,rbx
    1b1e:	movsd  QWORD PTR [rsp+0x8],xmm5
    1b24:	movsd  xmm0,QWORD PTR [rsp+0x8]
    1b2a:	pxor   xmm1,xmm1
    1b2e:	mov    rdx,rax
    1b31:	mov    rsi,rbx
    1b34:	cvtsi2sd xmm1,rax
    1b39:	lea    rdi,[rip+0x1b18]        # 3658 <_IO_stdin_used+0x658>
    1b40:	mov    eax,0x1
    1b45:	lea    rbx,[rip+0x35e4]        # 5130 <g_profiler+0x10>
    1b4c:	divsd  xmm0,xmm1
    1b50:	lea    rbp,[rbx+0x30000]
    1b57:	mulsd  xmm0,QWORD PTR [rip+0x1e51]        # 39b0 <__PRETTY_FUNCTION__.9+0x60>
    1b5f:	call   1070 <printf@plt>
    for (usize i = 0; i < STATIC_ARRAY_COUNT(g_profiler.zones); i++)
    1b64:	jmp    1b7d <main+0x91d>
    1b66:	cs nop WORD PTR [rax+rax*1+0x0]
    1b70:	add    rbx,0x30
    1b74:	cmp    rbx,rbp
    1b77:	je     1a93 <main+0x833>
      if (zone->elapsed_inclusive)
    1b7d:	cmp    QWORD PTR [rbx+0x18],0x0
    1b82:	je     1b70 <main+0x910>
        f64 percent = ((f64)zone->elapsed_exclusive / (f64)total_delta) * 100.0;
    1b84:	mov    r8,QWORD PTR [rbx+0x10]
    1b88:	test   r8,r8
    1b8b:	js     1c30 <main+0x9d0>
    1b91:	pxor   xmm0,xmm0
    1b95:	cvtsi2sd xmm0,r8
    1b9a:	divsd  xmm0,QWORD PTR [rsp+0x8]
        printf("[PROFILE] Zone '%.*s':\n"
    1ba0:	mov    esi,DWORD PTR [rbx+0x8]
    1ba3:	mov    rcx,QWORD PTR [rbx+0x20]
    1ba7:	lea    rdi,[rip+0x1aea]        # 3698 <_IO_stdin_used+0x698>
        f64 percent = ((f64)zone->elapsed_exclusive / (f64)total_delta) * 100.0;
    1bae:	mulsd  xmm0,QWORD PTR [rip+0x1e02]        # 39b8 <__PRETTY_FUNCTION__.9+0x68>
        printf("[PROFILE] Zone '%.*s':\n"
    1bb6:	mov    rdx,QWORD PTR [rbx]
    1bb9:	mov    eax,0x1
    1bbe:	call   1070 <printf@plt>
        if (zone->elapsed_exclusive != zone->elapsed_inclusive)
    1bc3:	mov    rsi,QWORD PTR [rbx+0x18]
    1bc7:	cmp    QWORD PTR [rbx+0x10],rsi
    1bcb:	je     1b70 <main+0x910>
          f64 with_children_percent = ((f64)zone->elapsed_inclusive / (f64)total_delta) * 100.0;
    1bcd:	test   rsi,rsi
    1bd0:	js     1c58 <main+0x9f8>
    1bd6:	pxor   xmm0,xmm0
    1bda:	cvtsi2sd xmm0,rsi
    1bdf:	divsd  xmm0,QWORD PTR [rsp+0x8]
    1be5:	mulsd  xmm0,QWORD PTR [rip+0x1dcb]        # 39b8 <__PRETTY_FUNCTION__.9+0x68>
          printf("  Inclusive Timestamp Cycles: %lu (%.4f%%)\n", zone->elapsed_inclusive, with_children_percent);
    1bed:	mov    eax,0x1
    1bf2:	lea    rdi,[rip+0x1af7]        # 36f0 <_IO_stdin_used+0x6f0>
    1bf9:	call   1070 <printf@plt>
    1bfe:	jmp    1b70 <main+0x910>
          LOG_INFO("Solutions (solution: %f, calculated: %f) match! :)", solution_sum, sum);
    1c03:	mov    edx,0x64
    1c08:	mov    edi,0x3
    1c0d:	mov    eax,0x2
    1c12:	lea    rcx,[rip+0x1a07]        # 3620 <_IO_stdin_used+0x620>
    1c19:	lea    rsi,[rip+0x149f]        # 30bf <_IO_stdin_used+0xbf>
    1c20:	call   2040 <log_message>
    1c25:	jmp    19ce <main+0x76e>
    1c2a:	nop    WORD PTR [rax+rax*1+0x0]
        f64 percent = ((f64)zone->elapsed_exclusive / (f64)total_delta) * 100.0;
    1c30:	mov    rax,r8
    1c33:	mov    rdx,r8
    1c36:	pxor   xmm0,xmm0
    1c3a:	shr    rax,1
    1c3d:	and    edx,0x1
    1c40:	or     rax,rdx
    1c43:	cvtsi2sd xmm0,rax
    1c48:	addsd  xmm0,xmm0
    1c4c:	jmp    1b9a <main+0x93a>
    1c51:	nop    DWORD PTR [rax+0x0]
          f64 with_children_percent = ((f64)zone->elapsed_inclusive / (f64)total_delta) * 100.0;
    1c58:	mov    rax,rsi
    1c5b:	mov    rdx,rsi
    1c5e:	pxor   xmm0,xmm0
    1c62:	shr    rax,1
    1c65:	and    edx,0x1
    1c68:	or     rax,rdx
    1c6b:	cvtsi2sd xmm0,rax
    1c70:	addsd  xmm0,xmm0
    1c74:	jmp    1bdf <main+0x97f>
      LOG_ERROR("Solution dump is not large enough to hold actual solutions");
    1c79:	lea    rcx,[rip+0x18e0]        # 3560 <_IO_stdin_used+0x560>
    1c80:	mov    edx,0x72
    1c85:	lea    rsi,[rip+0x1433]        # 30bf <_IO_stdin_used+0xbf>
    1c8c:	xor    eax,eax
    1c8e:	mov    edi,0x1
    1c93:	call   2040 <log_message>
    1c98:	jmp    19ce <main+0x76e>
        LOG_ERROR("Solution pair counts (%d) and parsed pair count (%d) do not match", solution_pairs, pair_count);
    1c9d:	mov    r9d,ebx
    1ca0:	mov    edx,0x6d
    1ca5:	mov    edi,0x1
    1caa:	xor    eax,eax
    1cac:	lea    rcx,[rip+0x18ed]        # 35a0 <_IO_stdin_used+0x5a0>
    1cb3:	lea    rsi,[rip+0x1405]        # 30bf <_IO_stdin_used+0xbf>
    1cba:	call   2040 <log_message>
    1cbf:	jmp    19ce <main+0x76e>
    printf("[PROFILE] Total duration: %lu (%fms @ CPU Frequency: %u)\n", total_delta, (f64)total_delta / (f64)freq * 1000.0, freq);
    1cc4:	mov    rdx,rbx
    1cc7:	mov    rcx,rbx
    1cca:	pxor   xmm0,xmm0
    1cce:	shr    rdx,1
    1cd1:	and    ecx,0x1
    1cd4:	or     rdx,rcx
    1cd7:	cvtsi2sd xmm0,rdx
    1cdc:	addsd  xmm0,xmm0
    1ce0:	movsd  QWORD PTR [rsp+0x8],xmm0
    1ce6:	jmp    1b24 <main+0x8c4>
    .parent_index = g_profiler.current_parent_zone,
    1ceb:	mov    rcx,QWORD PTR [rip+0x3436]        # 5128 <g_profiler+0x8>
  g_profiler.current_parent_zone = zone_index;
    1cf2:	mov    QWORD PTR [rip+0x342b],0x8        # 5128 <g_profiler+0x8>
    1cfd:	rdtsc
  return pass;
    1cff:	lea    rdi,[rip+0x13af]        # 30b5 <_IO_stdin_used+0xb5>
    1d06:	xor    ebx,ebx
    1d08:	shl    rdx,0x20
    1d0c:	mov    QWORD PTR [rsp+0x140],rdi
    1d14:	or     rax,rdx
    1d17:	mov    QWORD PTR [rsp+0x168],rcx
  f64 sum = 0.0;
    1d1f:	mov    QWORD PTR [rsp+0x8],0x0
    1d28:	movq   xmm0,rax
    1d2d:	xor    eax,eax
    1d2f:	movhps xmm0,QWORD PTR [rip+0x3592]        # 52c8 <g_profiler+0x1a8>
    1d36:	mov    QWORD PTR [rsp+0x148],0x3
    1d42:	mov    QWORD PTR [rsp+0x160],0x8
    1d4e:	mov    QWORD PTR [rsp+0x170],rax
    1d56:	movaps XMMWORD PTR [rsp+0x150],xmm0
    1d5e:	jmp    18b3 <main+0x653>
  f64 c = 2.0 * asin(sqrt(a));
    1d63:	call   1160 <sqrt@plt>
    1d68:	jmp    1889 <main+0x629>
}
    1d6d:	call   1060 <__stack_chk_fail@plt>
    1d72:	cs nop WORD PTR [rax+rax*1+0x0]
    1d7c:	nop    DWORD PTR [rax+0x0]

0000000000001d80 <_start>:
    1d80:	endbr64
    1d84:	xor    ebp,ebp
    1d86:	mov    r9,rdx
    1d89:	pop    rsi
    1d8a:	mov    rdx,rsp
    1d8d:	and    rsp,0xfffffffffffffff0
    1d91:	push   rax
    1d92:	push   rsp
    1d93:	xor    r8d,r8d
    1d96:	xor    ecx,ecx
    1d98:	lea    rdi,[rip+0xfffffffffffff4c1]        # 1260 <main>
    1d9f:	call   QWORD PTR [rip+0x3213]        # 4fb8 <__libc_start_main@GLIBC_2.34>
    1da5:	hlt
    1da6:	cs nop WORD PTR [rax+rax*1+0x0]
    1db0:	lea    rdi,[rip+0x3329]        # 50e0 <stdout@GLIBC_2.2.5>
    1db7:	lea    rax,[rip+0x3322]        # 50e0 <stdout@GLIBC_2.2.5>
    1dbe:	cmp    rax,rdi
    1dc1:	je     1dd8 <_start+0x58>
    1dc3:	mov    rax,QWORD PTR [rip+0x31f6]        # 4fc0 <_ITM_deregisterTMCloneTable@Base>
    1dca:	test   rax,rax
    1dcd:	je     1dd8 <_start+0x58>
    1dcf:	jmp    rax
    1dd1:	nop    DWORD PTR [rax+0x0]
    1dd8:	ret
    1dd9:	nop    DWORD PTR [rax+0x0]
    1de0:	lea    rdi,[rip+0x32f9]        # 50e0 <stdout@GLIBC_2.2.5>
    1de7:	lea    rsi,[rip+0x32f2]        # 50e0 <stdout@GLIBC_2.2.5>
    1dee:	sub    rsi,rdi
    1df1:	mov    rax,rsi
    1df4:	shr    rsi,0x3f
    1df8:	sar    rax,0x3
    1dfc:	add    rsi,rax
    1dff:	sar    rsi,1
    1e02:	je     1e18 <_start+0x98>
    1e04:	mov    rax,QWORD PTR [rip+0x31c5]        # 4fd0 <_ITM_registerTMCloneTable@Base>
    1e0b:	test   rax,rax
    1e0e:	je     1e18 <_start+0x98>
    1e10:	jmp    rax
    1e12:	nop    WORD PTR [rax+rax*1+0x0]
    1e18:	ret
    1e19:	nop    DWORD PTR [rax+0x0]
    1e20:	endbr64
    1e24:	cmp    BYTE PTR [rip+0x32dd],0x0        # 5108 <stderr@GLIBC_2.2.5+0x8>
    1e2b:	jne    1e60 <_start+0xe0>
    1e2d:	push   rbp
    1e2e:	cmp    QWORD PTR [rip+0x31a2],0x0        # 4fd8 <__cxa_finalize@GLIBC_2.2.5>
    1e36:	mov    rbp,rsp
    1e39:	je     1e48 <_start+0xc8>
    1e3b:	mov    rdi,QWORD PTR [rip+0x3266]        # 50a8 <__dso_handle>
    1e42:	call   QWORD PTR [rip+0x3190]        # 4fd8 <__cxa_finalize@GLIBC_2.2.5>
    1e48:	call   1db0 <_start+0x30>
    1e4d:	mov    BYTE PTR [rip+0x32b4],0x1        # 5108 <stderr@GLIBC_2.2.5+0x8>
    1e54:	pop    rbp
    1e55:	ret
    1e56:	cs nop WORD PTR [rax+rax*1+0x0]
    1e60:	ret
    1e61:	nop    DWORD PTR [rax+0x0]
    1e65:	data16 cs nop WORD PTR [rax+rax*1+0x0]
    1e70:	endbr64
    1e74:	jmp    1de0 <_start+0x60>
    1e79:	nop    DWORD PTR [rax+0x0]

0000000000001e80 <__profile_end_pass.constprop.0>:
}

static
void __profile_end_pass(Profile_Pass pass)
    1e80:	mov    r9,QWORD PTR [rsp+0x30]
    1e85:	rdtsc
{
  // First!
  u64 elapsed = read_cpu_timer() - pass.start;

  // Pop parent
  g_profiler.current_parent_zone = pass.parent_index;
    1e87:	lea    rcx,[rip+0x3292]        # 5120 <g_profiler>

  Profile_Zone *current = &g_profiler.zones[pass.zone_index];
    1e8e:	mov    r8,QWORD PTR [rsp+0x28]
  u64 elapsed = read_cpu_timer() - pass.start;
    1e93:	mov    rsi,QWORD PTR [rsp+0x18]
  current->elapsed_exclusive += elapsed;
  current->hit_count += 1;
  current->name = pass.name; // Stupid...
    1e98:	movdqu xmm0,XMMWORD PTR [rsp+0x8]
    1e9e:	shl    rdx,0x20
  g_profiler.current_parent_zone = pass.parent_index;
    1ea2:	mov    QWORD PTR [rip+0x327f],r9        # 5128 <g_profiler+0x8>
    1ea9:	or     rax,rdx
  current->elapsed_exclusive += elapsed;
    1eac:	lea    rdx,[r8+r8*2]
  current->hit_count += 1;
    1eb0:	lea    r8,[r8+r8*2+0x3]
  current->elapsed_exclusive += elapsed;
    1eb5:	shl    rdx,0x4
  u64 elapsed = read_cpu_timer() - pass.start;
    1eb9:	mov    rdi,rax
  current->hit_count += 1;
    1ebc:	shl    r8,0x4
  u64 elapsed = read_cpu_timer() - pass.start;
    1ec0:	sub    rdi,rsi
  current->elapsed_exclusive += elapsed;
    1ec3:	add    QWORD PTR [rcx+rdx*1+0x20],rdi
  current->elapsed_inclusive = pass.old_elapsed_inclusive + elapsed; // So that only the final out of potential recursive calls writes inclusive time
    1ec8:	add    rdi,QWORD PTR [rsp+0x20]
  current->bytes_processed += pass.bytes_processed;

  // Accumulate to parent time
  Profile_Zone *parent = &g_profiler.zones[pass.parent_index];
  parent->elapsed_exclusive -= elapsed;
    1ecd:	sub    rsi,rax
  current->elapsed_inclusive = pass.old_elapsed_inclusive + elapsed; // So that only the final out of potential recursive calls writes inclusive time
    1ed0:	mov    QWORD PTR [rcx+rdx*1+0x28],rdi
  current->name = pass.name; // Stupid...
    1ed5:	movaps XMMWORD PTR [rcx+rdx*1+0x10],xmm0
  parent->elapsed_exclusive -= elapsed;
    1eda:	lea    rdx,[r9+r9*2]
    1ede:	shl    rdx,0x4
  current->hit_count += 1;
    1ee2:	add    QWORD PTR [rcx+r8*1],0x1
  parent->elapsed_exclusive -= elapsed;
    1ee7:	add    QWORD PTR [rcx+rdx*1+0x20],rsi
}
    1eec:	ret
    1eed:	nop    DWORD PTR [rax]

0000000000001ef0 <lookup_json_object>:
{
    1ef0:	push   r12
    1ef2:	push   rbp
    1ef3:	mov    rbp,rdx
    1ef6:	push   rbx
    1ef7:	sub    rsp,0x40
    .parent_index = g_profiler.current_parent_zone,
    1efb:	mov    rcx,QWORD PTR [rip+0x3226]        # 5128 <g_profiler+0x8>
  g_profiler.current_parent_zone = zone_index;
    1f02:	mov    QWORD PTR [rip+0x321b],0x4        # 5128 <g_profiler+0x8>
    1f0d:	rdtsc
    for (JSON_Object *cursor = current->first_child; cursor; cursor = cursor->next_sibling)
    1f0f:	mov    rbx,QWORD PTR [rdi+0x20]
    1f13:	shl    rdx,0x20
  return pass;
    1f17:	mov    QWORD PTR [rsp+0x28],rcx
    1f1c:	mov    QWORD PTR [rsp+0x8],0x12
    1f25:	or     rax,rdx
    1f28:	lea    rdx,[rip+0x1961]        # 3890 <__func__.1>
    1f2f:	movq   xmm0,rax
    1f34:	mov    QWORD PTR [rsp],rdx
    1f38:	movhps xmm0,QWORD PTR [rip+0x32c9]        # 5208 <g_profiler+0xe8>
    1f3f:	mov    QWORD PTR [rsp+0x20],0x4
    1f48:	mov    QWORD PTR [rsp+0x30],0x0
    1f51:	movaps XMMWORD PTR [rsp+0x10],xmm0
    1f56:	test   rbx,rbx
    1f59:	je     1f81 <lookup_json_object+0x91>
    1f5b:	mov    r12,rsi
    1f5e:	jmp    1f69 <lookup_json_object+0x79>
    1f60:	mov    rbx,QWORD PTR [rbx+0x28]
    1f64:	test   rbx,rbx
    1f67:	je     1f81 <lookup_json_object+0x91>
  return a.count == b.count && memcmp(a.data, b.data, a.count) == 0;
    1f69:	cmp    rbp,QWORD PTR [rbx+0x8]
    1f6d:	jne    1f60 <lookup_json_object+0x70>
    1f6f:	mov    rsi,QWORD PTR [rbx]
    1f72:	mov    rdx,rbp
    1f75:	mov    rdi,r12
    1f78:	call   10d0 <memcmp@plt>
    1f7d:	test   eax,eax
    1f7f:	jne    1f60 <lookup_json_object+0x70>
  profile_end_func();
    1f81:	sub    rsp,0x40
    1f85:	movdqa xmm0,XMMWORD PTR [rsp+0x40]
    1f8b:	mov    rax,QWORD PTR [rsp+0x70]
    1f90:	movups XMMWORD PTR [rsp],xmm0
    1f94:	movdqa xmm0,XMMWORD PTR [rsp+0x50]
    1f9a:	mov    QWORD PTR [rsp+0x30],rax
    1f9f:	movups XMMWORD PTR [rsp+0x10],xmm0
    1fa4:	movdqa xmm0,XMMWORD PTR [rsp+0x60]
    1faa:	movups XMMWORD PTR [rsp+0x20],xmm0
    1faf:	call   1e80 <__profile_end_pass.constprop.0>
}
    1fb4:	sub    rsp,0xffffffffffffff80
    1fb8:	mov    rax,rbx
    1fbb:	pop    rbx
    1fbc:	pop    rbp
    1fbd:	pop    r12
    1fbf:	ret

0000000000001fc0 <file_size>:
{
    1fc0:	sub    rsp,0xa8
  stat(name, &stats);
    1fc7:	mov    rsi,QWORD PTR fs:0x28
    1fd0:	mov    QWORD PTR [rsp+0x98],rsi
    1fd8:	mov    rsi,rsp
    1fdb:	call   1100 <stat@plt>
  return stats.st_size;
    1fe0:	mov    rax,QWORD PTR [rsp+0x30]
}
    1fe5:	mov    rdx,QWORD PTR [rsp+0x98]
    1fed:	sub    rdx,QWORD PTR fs:0x28
    1ff6:	jne    2000 <file_size+0x40>
    1ff8:	add    rsp,0xa8
    1fff:	ret
    2000:	call   1060 <__stack_chk_fail@plt>
    2005:	data16 cs nop WORD PTR [rax+rax*1+0x0]

0000000000002010 <strings_equal>:
  return a.count == b.count && memcmp(a.data, b.data, a.count) == 0;
    2010:	cmp    rsi,rcx
    2013:	je     2020 <strings_equal+0x10>
    2015:	xor    eax,eax
}
    2017:	ret
    2018:	nop    DWORD PTR [rax+rax*1+0x0]
    2020:	mov    rax,rdx
{
    2023:	sub    rsp,0x8
    2027:	mov    rdx,rsi
  return a.count == b.count && memcmp(a.data, b.data, a.count) == 0;
    202a:	mov    rsi,rax
    202d:	call   10d0 <memcmp@plt>
    2032:	test   eax,eax
    2034:	sete   al
}
    2037:	add    rsp,0x8
    203b:	ret
    203c:	nop    DWORD PTR [rax+0x0]

0000000000002040 <log_message>:
{
    2040:	push   rbp
    2041:	mov    r10,rdx
    2044:	mov    rbp,rcx
    2047:	push   rbx
    2048:	sub    rsp,0xd8
    204f:	mov    QWORD PTR [rsp+0x40],r8
    2054:	mov    QWORD PTR [rsp+0x48],r9
    2059:	test   al,al
    205b:	je     2094 <log_message+0x54>
    205d:	movaps XMMWORD PTR [rsp+0x50],xmm0
    2062:	movaps XMMWORD PTR [rsp+0x60],xmm1
    2067:	movaps XMMWORD PTR [rsp+0x70],xmm2
    206c:	movaps XMMWORD PTR [rsp+0x80],xmm3
    2074:	movaps XMMWORD PTR [rsp+0x90],xmm4
    207c:	movaps XMMWORD PTR [rsp+0xa0],xmm5
    2084:	movaps XMMWORD PTR [rsp+0xb0],xmm6
    208c:	movaps XMMWORD PTR [rsp+0xc0],xmm7
  FILE *stream = stderr;
    2094:	mov    rbx,QWORD PTR fs:0x28
    209d:	mov    QWORD PTR [rsp+0x18],rbx
    20a2:	mov    rbx,QWORD PTR [rip+0x3057]        # 5100 <stderr@GLIBC_2.2.5>
    fprintf(stream, "[" LOG_TITLE " %s]: (%s:%lu) ", level_strings[level], file, line);
    20a9:	mov    eax,edi
    20ab:	lea    rcx,[rip+0x300e]        # 50c0 <level_strings>
    20b2:	mov    rdx,QWORD PTR [rcx+rax*8]
  if (level <= LOG_ERROR)
    20b6:	cmp    edi,0x1
    20b9:	jbe    2138 <log_message+0xf8>
      stream = stdout;
    20bb:	cmp    edi,0x3
    20be:	cmove  rbx,QWORD PTR [rip+0x301a]        # 50e0 <stdout@GLIBC_2.2.5>
    fprintf(stream, "[" LOG_TITLE " %s]: ", level_strings[level]);
    20c6:	xor    eax,eax
    20c8:	lea    rsi,[rip+0xf6a]        # 3039 <_IO_stdin_used+0x39>
    20cf:	mov    rdi,rbx
    20d2:	call   10f0 <fprintf@plt>
  vfprintf(stream, message, args);
    20d7:	mov    rsi,rbp
    20da:	mov    rdi,rbx
    20dd:	mov    rdx,rsp
  va_start(args, message);
    20e0:	mov    DWORD PTR [rsp],0x20
    20e7:	lea    rax,[rsp+0xf0]
    20ef:	mov    DWORD PTR [rsp+0x4],0x30
    20f7:	mov    QWORD PTR [rsp+0x8],rax
    20fc:	lea    rax,[rsp+0x20]
    2101:	mov    QWORD PTR [rsp+0x10],rax
  vfprintf(stream, message, args);
    2106:	call   1120 <vfprintf@plt>
  fprintf(stream, "\n");
    210b:	mov    rsi,rbx
    210e:	mov    edi,0xa
    2113:	call   10c0 <fputc@plt>
}
    2118:	mov    rax,QWORD PTR [rsp+0x18]
    211d:	sub    rax,QWORD PTR fs:0x28
    2126:	jne    2151 <log_message+0x111>
    2128:	add    rsp,0xd8
    212f:	pop    rbx
    2130:	pop    rbp
    2131:	ret
    2132:	nop    WORD PTR [rax+rax*1+0x0]
    fprintf(stream, "[" LOG_TITLE " %s]: (%s:%lu) ", level_strings[level], file, line);
    2138:	mov    rcx,rsi
    213b:	mov    r8,r10
    213e:	lea    rsi,[rip+0xedd]        # 3022 <_IO_stdin_used+0x22>
    2145:	mov    rdi,rbx
    2148:	xor    eax,eax
    214a:	call   10f0 <fprintf@plt>
    214f:	jmp    20d7 <log_message+0x97>
}
    2151:	call   1060 <__stack_chk_fail@plt>
    2156:	cs nop WORD PTR [rax+rax*1+0x0]

0000000000002160 <read_file_to_memory>:
{
    2160:	push   r12
    2162:	mov    r12,rsi
  FILE *file = fopen(name, "rb");
    2165:	lea    rsi,[rip+0xedb]        # 3047 <_IO_stdin_used+0x47>
{
    216c:	push   rbp
    216d:	push   rbx
    216e:	mov    rbx,rdi
    2171:	sub    rsp,0x10
    2175:	mov    QWORD PTR [rsp+0x8],rdx
  FILE *file = fopen(name, "rb");
    217a:	call   1110 <fopen@plt>
  if (file == NULL)
    217f:	mov    rdx,QWORD PTR [rsp+0x8]
    2184:	test   rax,rax
    2187:	je     21b3 <read_file_to_memory+0x53>
    2189:	mov    rbp,rax
  usize byte_count = fread(buffer, sizeof(u8), buffer_size, file);
    218c:	mov    rdi,r12
    218f:	mov    rcx,rax
    2192:	mov    esi,0x1
    2197:	call   1040 <fread@plt>
  fclose(file);
    219c:	mov    rdi,rbp
  usize byte_count = fread(buffer, sizeof(u8), buffer_size, file);
    219f:	mov    rbx,rax
  fclose(file);
    21a2:	call   1050 <fclose@plt>
}
    21a7:	add    rsp,0x10
    21ab:	mov    rax,rbx
    21ae:	pop    rbx
    21af:	pop    rbp
    21b0:	pop    r12
    21b2:	ret
    LOG_ERROR("Unable to open file: %s", name);
    21b3:	mov    r8,rbx
    21b6:	lea    rcx,[rip+0xe8d]        # 304a <_IO_stdin_used+0x4a>
    21bd:	xor    eax,eax
    21bf:	xor    ebx,ebx
    21c1:	mov    edx,0x17b
    21c6:	lea    rsi,[rip+0xe48]        # 3015 <_IO_stdin_used+0x15>
    21cd:	mov    edi,0x1
    21d2:	call   2040 <log_message>
    return 0;
    21d7:	jmp    21a7 <read_file_to_memory+0x47>
    21d9:	nop    DWORD PTR [rax+0x0]

00000000000021e0 <arena_make>:
{
    21e0:	push   rbp
    21e1:	mov    rbp,rdi
    21e4:	push   rbx
    21e5:	mov    rbx,rsi
  arena.base = (u8 *)calloc(reserve_size, 1);
    21e8:	mov    esi,0x1
    21ed:	mov    rdi,rbx
{
    21f0:	sub    rsp,0x8
  arena.base = (u8 *)calloc(reserve_size, 1);
    21f4:	call   10e0 <calloc@plt>
  if (arena.base == NULL)
    21f9:	test   rax,rax
    21fc:	je     221c <arena_make+0x3c>
  return arena;
    21fe:	movq   xmm0,rbx
    2203:	mov    QWORD PTR [rbp+0x0],rax
}
    2207:	mov    rax,rbp
  return arena;
    220a:	mov    DWORD PTR [rbp+0x18],0x0
    2211:	movups XMMWORD PTR [rbp+0x8],xmm0
}
    2215:	add    rsp,0x8
    2219:	pop    rbx
    221a:	pop    rbp
    221b:	ret
    LOG_FATAL("Failed to allocate arena memory", EXT_ARENA_ALLOCATION);
    221c:	xor    edi,edi
    221e:	lea    rcx,[rip+0x109b]        # 32c0 <_IO_stdin_used+0x2c0>
    2225:	mov    edx,0x1d9
    222a:	lea    rsi,[rip+0xde4]        # 3015 <_IO_stdin_used+0x15>
    2231:	call   2040 <log_message>
    2236:	mov    edi,0xffffffff
    223b:	call   1150 <exit@plt>

0000000000002240 <arena_make_backed>:
{
    2240:	sub    rsp,0x8
  ASSERT(backing_buffer != NULL, "Backing buffer for arena must not be NULL!");
    2244:	test   rsi,rsi
    2247:	je     11c0 <arena_make_backed.cold>
  ASSERT(backing_size   != 0,    "Backing buffer size for arena must not be 0!");
    224d:	test   rdx,rdx
    2250:	je     11df <arena_make_backed.cold+0x1f>
    2256:	movq   xmm0,rdx
  return arena;
    225b:	mov    QWORD PTR [rdi],rsi
    225e:	mov    rax,rdi
    2261:	mov    DWORD PTR [rdi+0x18],0x1
    2268:	movups XMMWORD PTR [rdi+0x8],xmm0
}
    226c:	add    rsp,0x8
    2270:	ret
    2271:	nop    DWORD PTR [rax+0x0]
    2275:	data16 cs nop WORD PTR [rax+rax*1+0x0]

0000000000002280 <arena_free>:
{
    2280:	mov    rax,rdi
  if (!(arena->flags & ARENA_FLAG_BUFFER_BACKED))
    2283:	test   BYTE PTR [rdi+0x18],0x1
    2287:	je     2298 <arena_free+0x18>
  ZERO_STRUCT(arena);
    2289:	pxor   xmm0,xmm0
    228d:	movups XMMWORD PTR [rdi],xmm0
    2290:	movups XMMWORD PTR [rdi+0x10],xmm0
    2294:	ret
    2295:	nop    DWORD PTR [rax]
{
    2298:	sub    rsp,0x18
    free(arena->base);
    229c:	mov    rdi,QWORD PTR [rdi]
    229f:	mov    QWORD PTR [rsp+0x8],rax
    22a4:	call   1030 <free@plt>
    22a9:	mov    rax,QWORD PTR [rsp+0x8]
  ZERO_STRUCT(arena);
    22ae:	pxor   xmm0,xmm0
    22b2:	movups XMMWORD PTR [rax],xmm0
    22b5:	movups XMMWORD PTR [rax+0x10],xmm0
}
    22b9:	add    rsp,0x18
    22bd:	ret
    22be:	xchg   ax,ax

00000000000022c0 <arena_alloc>:
void *arena_alloc(Arena *arena, isize size, isize alignment) {
    22c0:	push   rbp
    22c1:	push   rbx
    22c2:	sub    rsp,0x8
  ASSERT(arena->base != NULL, "Arena memory is null");
    22c6:	mov    rax,QWORD PTR [rdi]
    22c9:	test   rax,rax
    22cc:	je     11fe <arena_alloc.cold>
    22d2:	mov    rcx,rdx
  isize aligned_offset = ALIGN_ROUND_UP(arena->next_offset, alignment);
    22d5:	mov    rdx,QWORD PTR [rdi+0x10]
  if ((aligned_offset + size) > arena->capacity)
    22d9:	mov    r9,QWORD PTR [rdi+0x8]
    22dd:	mov    rbx,rdi
  isize aligned_offset = ALIGN_ROUND_UP(arena->next_offset, alignment);
    22e0:	lea    rdx,[rdx+rcx*1-0x1]
    22e5:	neg    rcx
    22e8:	and    rdx,rcx
  if ((aligned_offset + size) > arena->capacity)
    22eb:	lea    rbp,[rdx+rsi*1]
    22ef:	cmp    rbp,r9
    22f2:	jg     230d <arena_alloc+0x4d>
  ZERO_SIZE(ptr, size); // make sure memory is zeroed out
    22f4:	lea    rdi,[rax+rdx*1]
    22f8:	mov    rdx,rsi
    22fb:	xor    esi,esi
    22fd:	call   10a0 <memset@plt>
  arena->next_offset = aligned_offset + size;
    2302:	mov    QWORD PTR [rbx+0x10],rbp
}
    2306:	add    rsp,0x8
    230a:	pop    rbx
    230b:	pop    rbp
    230c:	ret
    LOG_FATAL("Not enough memory in arena, NEED: %ld bytes HAVE: %ld bytes",
    230d:	xor    edi,edi
    230f:	mov    r8,rbp
    2312:	lea    rcx,[rip+0x1097]        # 33b0 <_IO_stdin_used+0x3b0>
    2319:	xor    eax,eax
    231b:	mov    edx,0x207
    2320:	lea    rsi,[rip+0xcee]        # 3015 <_IO_stdin_used+0x15>
    2327:	call   2040 <log_message>
    232c:	mov    edi,0xffffffff
    2331:	call   1150 <exit@plt>
    2336:	cs nop WORD PTR [rax+rax*1+0x0]

0000000000002340 <read_file_to_arena>:
{
    2340:	push   r15
    2342:	push   r14
    2344:	push   r13
    2346:	push   r12
    2348:	push   rbp
    2349:	mov    rbp,rdi
    234c:	push   rbx
    234d:	sub    rsp,0xb8
    2354:	mov    r12,QWORD PTR fs:0x28
    235d:	mov    QWORD PTR [rsp+0xa8],r12
    2365:	mov    r12,rsi
  stat(name, &stats);
    2368:	lea    rsi,[rsp+0x10]
    236d:	mov    rdi,r12
    2370:	call   1100 <stat@plt>
  u8 *buffer = arena_calloc(arena, buffer_size, u8);
    2375:	mov    rdi,rbp
  Arena save = *arena;
    2378:	mov    r15,QWORD PTR [rbp+0x0]
    237c:	mov    r14d,DWORD PTR [rbp+0x18]
  return stats.st_size;
    2380:	mov    rbx,QWORD PTR [rsp+0x40]
  Arena save = *arena;
    2385:	movdqu xmm0,XMMWORD PTR [rbp+0x8]
  u8 *buffer = arena_calloc(arena, buffer_size, u8);
    238a:	mov    edx,0x1
    238f:	mov    rsi,rbx
  Arena save = *arena;
    2392:	movaps XMMWORD PTR [rsp],xmm0
  u8 *buffer = arena_calloc(arena, buffer_size, u8);
    2396:	call   22c0 <arena_alloc>
  if (read_file_to_memory(name, buffer, buffer_size) != buffer_size)
    239b:	mov    rdx,rbx
    239e:	mov    rdi,r12
    23a1:	mov    rsi,rax
  u8 *buffer = arena_calloc(arena, buffer_size, u8);
    23a4:	mov    r13,rax
  if (read_file_to_memory(name, buffer, buffer_size) != buffer_size)
    23a7:	call   2160 <read_file_to_memory>
    23ac:	cmp    rax,rbx
    23af:	je     23e4 <read_file_to_arena+0xa4>
    LOG_ERROR("Unable to read file: %s", name);
    23b1:	mov    r8,r12
    23b4:	mov    edx,0x19d
    23b9:	mov    edi,0x1
    23be:	xor    eax,eax
    23c0:	lea    rcx,[rip+0xc9b]        # 3062 <_IO_stdin_used+0x62>
    23c7:	lea    rsi,[rip+0xc47]        # 3015 <_IO_stdin_used+0x15>
    23ce:	call   2040 <log_message>
    *arena = save; // Rollback allocation
    23d3:	movdqa xmm0,XMMWORD PTR [rsp]
    23d8:	mov    QWORD PTR [rbp+0x0],r15
    23dc:	mov    DWORD PTR [rbp+0x18],r14d
    23e0:	movups XMMWORD PTR [rbp+0x8],xmm0
  return result;
    23e4:	mov    rax,r13
    23e7:	mov    rdx,rbx
}
    23ea:	mov    rcx,QWORD PTR [rsp+0xa8]
    23f2:	sub    rcx,QWORD PTR fs:0x28
    23fb:	jne    240f <read_file_to_arena+0xcf>
    23fd:	add    rsp,0xb8
    2404:	pop    rbx
    2405:	pop    rbp
    2406:	pop    r12
    2408:	pop    r13
    240a:	pop    r14
    240c:	pop    r15
    240e:	ret
    240f:	call   1060 <__stack_chk_fail@plt>
    2414:	nop
    2415:	data16 cs nop WORD PTR [rax+rax*1+0x0]

0000000000002420 <arena_pop_to>:
  ASSERT(offset < arena->next_offset,
    2420:	cmp    QWORD PTR [rdi+0x10],rsi
    2424:	jle    121d <arena_pop_to.cold>
  arena->next_offset = offset;
    242a:	mov    QWORD PTR [rdi+0x10],rsi
    242e:	ret
    242f:	nop

0000000000002430 <arena_pop>:
  arena_pop_to(arena, arena->next_offset - size);
    2430:	mov    rdx,QWORD PTR [rdi+0x10]
    2434:	mov    rax,rdx
    2437:	sub    rax,rsi
  ASSERT(offset < arena->next_offset,
    243a:	cmp    rdx,rax
    243d:	jle    1223 <arena_pop.cold>
  arena->next_offset = offset;
    2443:	mov    QWORD PTR [rdi+0x10],rax
    2447:	ret
    2448:	nop    DWORD PTR [rax+rax*1+0x0]

0000000000002450 <arena_clear>:
  arena->next_offset = 0;
    2450:	mov    QWORD PTR [rdi+0x10],0x0
}
    2458:	ret
    2459:	nop    DWORD PTR [rax+0x0]

0000000000002460 <scratch_begin>:
  return scratch;
    2460:	mov    rdx,QWORD PTR [rdi+0x10]
    2464:	mov    rax,rdi
}
    2467:	ret
    2468:	nop    DWORD PTR [rax+rax*1+0x0]

0000000000002470 <scratch_end>:
  arena_pop_to(scratch->arena, scratch->offset_save);
    2470:	mov    rax,QWORD PTR [rdi]
    2473:	mov    rdx,QWORD PTR [rdi+0x8]
  ASSERT(offset < arena->next_offset,
    2477:	cmp    rdx,QWORD PTR [rax+0x10]
    247b:	jge    1229 <scratch_end.cold>
  ZERO_STRUCT(scratch);
    2481:	pxor   xmm0,xmm0
  arena->next_offset = offset;
    2485:	mov    QWORD PTR [rax+0x10],rdx
  ZERO_STRUCT(scratch);
    2489:	movups XMMWORD PTR [rdi],xmm0
    248c:	ret
    248d:	nop    DWORD PTR [rax]

0000000000002490 <get_json_token>:
  return parser->at < parser->source.count;
    2490:	mov    r8,QWORD PTR [rsi+0x10]
    2494:	mov    rdx,QWORD PTR [rsi+0x8]
{
    2498:	mov    r9,rdi
  while (parser_incomplete(parser)  &&
    249b:	cmp    r8,rdx
    249e:	jae    251b <get_json_token+0x8b>
  return parser->source.data + parser->at;
    24a0:	mov    rcx,QWORD PTR [rsi]
    24a3:	mov    edi,0x800013
    24a8:	nop    DWORD PTR [rax+rax*1+0x0]
    24b0:	movzx  eax,BYTE PTR [rcx+r8*1]
    24b5:	sub    eax,0x9
    24b8:	cmp    al,0x17
    24ba:	ja     24f0 <get_json_token+0x60>
    24bc:	bt     rdi,rax
    24c0:	jae    24f0 <get_json_token+0x60>
  parser->at += advance;
    24c2:	add    r8,0x1
    24c6:	mov    QWORD PTR [rsi+0x10],r8
  while (parser_incomplete(parser)  &&
    24ca:	cmp    r8,rdx
    24cd:	jne    24b0 <get_json_token+0x20>
  parser->at += advance;
    24cf:	add    rdx,0x1
  JSON_Token token = {0};
    24d3:	xor    eax,eax
    24d5:	xor    r10d,r10d
  parser->at += advance;
    24d8:	mov    QWORD PTR [rsi+0x10],rdx
  JSON_Token token = {0};
    24dc:	xor    edx,edx
  return token;
    24de:	mov    QWORD PTR [r9+0x10],rax
}
    24e2:	mov    rax,r9
  return token;
    24e5:	mov    DWORD PTR [r9],edx
    24e8:	mov    QWORD PTR [r9+0x8],r10
}
    24ec:	ret
    24ed:	nop    DWORD PTR [rax]
  if (parser_incomplete(parser)) // If we've not reached the end of file
    24f0:	cmp    r8,rdx
    24f3:	jae    251b <get_json_token+0x8b>
  return parser->source.data + parser->at;
    24f5:	lea    r10,[rcx+r8*1]
    switch (*parser_at(parser))
    24f9:	movzx  eax,BYTE PTR [r10]
    24fd:	sub    eax,0x22
    2500:	cmp    al,0x5b
    2502:	ja     2578 <get_json_token+0xe8>
    2504:	lea    rdi,[rip+0x1215]        # 3720 <_IO_stdin_used+0x720>
    250b:	movzx  eax,al
{
    250e:	sub    rsp,0x18
    switch (*parser_at(parser))
    2512:	movsxd rax,DWORD PTR [rdi+rax*4]
    2516:	add    rax,rdi
    2519:	jmp    rax
    251b:	mov    rdx,r8
    251e:	jmp    24cf <get_json_token+0x3f>
  return memcmp(parser_at(parser), literal_string.data, literal_string.count) == 0;
    2520:	cmp    DWORD PTR [r10],0x736c6166
    2527:	je     2700 <get_json_token+0x270>
    252d:	mov    QWORD PTR [rsp],r10
          LOG_ERROR("Encountered unrecognized literal at byte %lu", parser->at);
    2531:	lea    rcx,[rip+0xeb8]        # 33f0 <_IO_stdin_used+0x3f0>
    2538:	mov    edx,0xee
    253d:	mov    QWORD PTR [rsp+0x8],r9
          LOG_ERROR("Encountered unrecognized literal at byte %lu", parser->at);
    2542:	lea    rsi,[rip+0xabb]        # 3004 <_IO_stdin_used+0x4>
    2549:	mov    edi,0x1
    254e:	xor    eax,eax
    2550:	call   2040 <log_message>
    2555:	mov    r10,QWORD PTR [rsp]
    2559:	mov    r9,QWORD PTR [rsp+0x8]
  JSON_Token token = {0};
    255e:	xor    eax,eax
    2560:	xor    edx,edx
  return token;
    2562:	mov    QWORD PTR [r9+0x10],rax
}
    2566:	mov    rax,r9
  return token;
    2569:	mov    DWORD PTR [r9],edx
    256c:	mov    QWORD PTR [r9+0x8],r10
}
    2570:	add    rsp,0x18
    2574:	ret
    2575:	nop    DWORD PTR [rax]
  JSON_Token token = {0};
    2578:	xor    eax,eax
    257a:	xor    edx,edx
    257c:	jmp    24de <get_json_token+0x4e>
  ASSERT(parser->at < parser->source.count, "Attempted to read past parser source");
    2581:	mov    rdi,QWORD PTR [rsi+0x10]
    2585:	cmp    rdi,rdx
    2588:	jae    122f <get_json_token.cold>
    258e:	sub    rdx,rdi
        usize digit_count = 0;
    2591:	xor    eax,eax
    2593:	lea    r8,[rcx+rdi*1]
        while (is_numeric(*parser_at(parser)))
    2597:	movzx  ecx,BYTE PTR [r8+rax*1]
  switch (ch)
    259c:	cmp    cl,0x2e
    259f:	ja     26d7 <get_json_token+0x247>
    25a5:	cmp    cl,0x2c
    25a8:	ja     26e3 <get_json_token+0x253>
        token.type  = JSON_TOKEN_NUMBER;
    25ae:	mov    edx,0x8
      break;
    25b3:	jmp    2562 <get_json_token+0xd2>
  parser->at += advance;
    25b5:	add    r8,0x1
        token.value.count = 1;
    25b9:	mov    eax,0x1
        token.type = JSON_TOKEN_COMMA;
    25be:	mov    edx,0x5
  parser->at += advance;
    25c3:	mov    QWORD PTR [rsi+0x10],r8
}
    25c7:	jmp    2562 <get_json_token+0xd2>
  parser->at += advance;
    25c9:	add    r8,0x1
        token.value.count = 1;
    25cd:	mov    eax,0x1
        token.type = JSON_TOKEN_COLON;
    25d2:	mov    edx,0x6
  parser->at += advance;
    25d7:	mov    QWORD PTR [rsi+0x10],r8
}
    25db:	jmp    2562 <get_json_token+0xd2>
  parser->at += advance;
    25dd:	add    r8,0x1
        token.value.count = 1;
    25e1:	mov    eax,0x1
        token.type = JSON_TOKEN_OPEN_SQUARE_BRACE;
    25e6:	mov    edx,0x3
  parser->at += advance;
    25eb:	mov    QWORD PTR [rsi+0x10],r8
}
    25ef:	jmp    2562 <get_json_token+0xd2>
  parser->at += advance;
    25f4:	add    r8,0x1
        token.value.count = 1;
    25f8:	mov    eax,0x1
        token.type = JSON_TOKEN_CLOSE_SQUARE_BRACE;
    25fd:	mov    edx,0x4
  parser->at += advance;
    2602:	mov    QWORD PTR [rsi+0x10],r8
}
    2606:	jmp    2562 <get_json_token+0xd2>
        if (parser_token_is_literal(parser, string))
    260b:	cmp    DWORD PTR [r10],0x6c6c756e
    2612:	jne    271f <get_json_token+0x28f>
  parser->at += advance;
    2618:	add    r8,0x4
  JSON_Token token = {0};
    261c:	xor    eax,eax
          token.type  = JSON_TOKEN_NULL;
    261e:	mov    edx,0xb
  parser->at += advance;
    2623:	mov    QWORD PTR [rsi+0x10],r8
}
    2627:	jmp    2562 <get_json_token+0xd2>
        if (parser_token_is_literal(parser, string))
    262c:	cmp    DWORD PTR [r10],0x65757274
    2633:	jne    2739 <get_json_token+0x2a9>
  parser->at += advance;
    2639:	add    r8,0x4
  JSON_Token token = {0};
    263d:	xor    eax,eax
          token.type  = JSON_TOKEN_TRUE;
    263f:	mov    edx,0x9
  parser->at += advance;
    2644:	mov    QWORD PTR [rsi+0x10],r8
}
    2648:	jmp    2562 <get_json_token+0xd2>
  parser->at += advance;
    264d:	add    r8,0x1
        token.value.count = 1;
    2651:	mov    eax,0x1
        token.type = JSON_TOKEN_CLOSE_CURLY_BRACE;
    2656:	mov    edx,0x2
  parser->at += advance;
    265b:	mov    QWORD PTR [rsi+0x10],r8
}
    265f:	jmp    2562 <get_json_token+0xd2>
  parser->at += advance;
    2664:	add    r8,0x1
        token.value.count = 1;
    2668:	mov    eax,0x1
        token.type = JSON_TOKEN_OPEN_CURLY_BRACE;
    266d:	mov    edx,0x1
  parser->at += advance;
    2672:	mov    QWORD PTR [rsi+0x10],r8
}
    2676:	jmp    2562 <get_json_token+0xd2>
  parser->at += advance;
    267b:	lea    r10,[r8+0x1]
    267f:	mov    QWORD PTR [rsi+0x10],r10
  ASSERT(parser->at < parser->source.count, "Attempted to read past parser source");
    2683:	cmp    r10,rdx
    2686:	jae    122f <get_json_token.cold>
    268c:	mov    rdi,r10
    268f:	jmp    26ad <get_json_token+0x21d>
    2691:	nop    DWORD PTR [rax+0x0]
    2695:	data16 cs nop WORD PTR [rax+rax*1+0x0]
  parser->at += advance;
    26a0:	mov    QWORD PTR [rsi+0x10],rdi
  ASSERT(parser->at < parser->source.count, "Attempted to read past parser source");
    26a4:	cmp    rdi,rdx
    26a7:	jae    2753 <get_json_token+0x2c3>
        while (*parser_at(parser) != '"')
    26ad:	movzx  r11d,BYTE PTR [rcx+rdi*1]
    26b2:	mov    rax,rdi
  parser->at += advance;
    26b5:	add    rdi,0x1
        while (*parser_at(parser) != '"')
    26b9:	cmp    r11b,0x22
    26bd:	jne    26a0 <get_json_token+0x210>
        token.value.count = string_count;
    26bf:	sub    rax,r8
  parser->at += advance;
    26c2:	mov    QWORD PTR [rsi+0x10],rdi
  return parser->source.data + parser->at;
    26c6:	add    r10,rcx
        token.type = JSON_TOKEN_STRING;
    26c9:	mov    edx,0x7
        token.value.count = string_count;
    26ce:	sub    rax,0x1
}
    26d2:	jmp    2562 <get_json_token+0xd2>
  switch (ch)
    26d7:	sub    ecx,0x30
    26da:	cmp    cl,0x9
    26dd:	ja     25ae <get_json_token+0x11e>
          digit_count += 1;
    26e3:	add    rax,0x1
  parser->at += advance;
    26e7:	lea    rcx,[rdi+rax*1]
    26eb:	mov    QWORD PTR [rsi+0x10],rcx
  ASSERT(parser->at < parser->source.count, "Attempted to read past parser source");
    26ef:	cmp    rdx,rax
    26f2:	jne    2597 <get_json_token+0x107>
    26f8:	jmp    122f <get_json_token.cold>
    26fd:	nop    DWORD PTR [rax]
  return memcmp(parser_at(parser), literal_string.data, literal_string.count) == 0;
    2700:	cmp    BYTE PTR [r10+0x4],0x65
    2705:	jne    252d <get_json_token+0x9d>
  parser->at += advance;
    270b:	add    r8,0x5
  JSON_Token token = {0};
    270f:	xor    eax,eax
          token.type  = JSON_TOKEN_FALSE;
    2711:	mov    edx,0xa
  parser->at += advance;
    2716:	mov    QWORD PTR [rsi+0x10],r8
}
    271a:	jmp    2562 <get_json_token+0xd2>
    271f:	mov    QWORD PTR [rsp],r10
          LOG_ERROR("Encountered unrecognized literal at byte %lu", parser->at);
    2723:	lea    rcx,[rip+0xcc6]        # 33f0 <_IO_stdin_used+0x3f0>
    272a:	mov    edx,0xfd
    272f:	mov    QWORD PTR [rsp+0x8],r9
    2734:	jmp    2542 <get_json_token+0xb2>
    2739:	mov    QWORD PTR [rsp],r10
          LOG_ERROR("Encountered unrecognized literal at byte %lu", parser->at);
    273d:	lea    rcx,[rip+0xcac]        # 33f0 <_IO_stdin_used+0x3f0>
    2744:	mov    edx,0xdf
    2749:	mov    QWORD PTR [rsp+0x8],r9
    274e:	jmp    2542 <get_json_token+0xb2>
    2753:	jmp    122f <get_json_token.cold>
    2758:	nop    DWORD PTR [rax+rax*1+0x0]

0000000000002760 <parse_json_children>:
{
    2760:	push   r15
    2762:	push   r14
    2764:	push   r13
    2766:	push   r12
    2768:	push   rbp
    2769:	push   rbx
    276a:	sub    rsp,0xc8
    .parent_index = g_profiler.current_parent_zone,
    2771:	mov    r8,QWORD PTR [rip+0x29b0]        # 5128 <g_profiler+0x8>
    2778:	mov    QWORD PTR [rsp+0x10],rdi
    277d:	mov    r13,QWORD PTR fs:0x28
    2786:	mov    QWORD PTR [rsp+0xb8],r13
    278e:	mov    r13d,edx
  g_profiler.current_parent_zone = zone_index;
    2791:	mov    QWORD PTR [rip+0x298c],0x2        # 5128 <g_profiler+0x8>
    279c:	rdtsc
    279e:	shl    rdx,0x20
  return pass;
    27a2:	mov    QWORD PTR [rsp+0xa8],r8
    27aa:	mov    QWORD PTR [rsp+0x88],0x13
    27b6:	or     rax,rdx
    27b9:	lea    rdx,[rip+0x10f0]        # 38b0 <__func__.2>
    27c0:	movq   xmm0,rax
  while (parser_incomplete(parser))
    27c5:	mov    rax,QWORD PTR [rsi+0x8]
    27c9:	movhps xmm0,QWORD PTR [rip+0x29d8]        # 51a8 <g_profiler+0x88>
    27d0:	mov    QWORD PTR [rsp+0x80],rdx
    27d8:	mov    QWORD PTR [rsp+0xa0],0x2
    27e4:	mov    QWORD PTR [rsp+0xb0],0x0
    27f0:	movaps XMMWORD PTR [rsp+0x90],xmm0
    27f8:	cmp    QWORD PTR [rsi+0x10],rax
    27fc:	jae    2a11 <parse_json_children+0x2b1>
    2802:	mov    DWORD PTR [rsp+0xc],ecx
    2806:	mov    r15,rsi
  JSON_Object *current_last_child = NULL;
    2809:	xor    r12d,r12d
  JSON_Object *first_child        = NULL;
    280c:	xor    r14d,r14d
    280f:	nop
    if (has_keys)
    2810:	mov    ecx,DWORD PTR [rsp+0xc]
    JSON_Token key_token = {0};
    2814:	pxor   xmm0,xmm0
    2818:	mov    QWORD PTR [rsp+0x30],0x0
    JSON_Token value_token = {0};
    2821:	mov    QWORD PTR [rsp+0x50],0x0
    JSON_Token key_token = {0};
    282a:	movaps XMMWORD PTR [rsp+0x20],xmm0
    JSON_Token value_token = {0};
    282f:	movaps XMMWORD PTR [rsp+0x40],xmm0
    if (has_keys)
    2834:	test   ecx,ecx
    2836:	je     2988 <parse_json_children+0x228>
      key_token = get_json_token(parser);
    283c:	lea    rdi,[rsp+0x20]
    2841:	mov    rsi,r15
    2844:	call   2490 <get_json_token>
    2849:	mov    eax,DWORD PTR [rsp+0x20]
    284d:	mov    r10,QWORD PTR [rsp+0x28]
    2852:	mov    rbx,QWORD PTR [rsp+0x30]
      if (key_token.type == JSON_TOKEN_STRING)
    2857:	cmp    eax,0x7
    285a:	je     29c0 <parse_json_children+0x260>
        LOG_ERROR("Unexpected key type: %s, (value = %*.s)", JSON_Token_Type_strings[key_token.type], String_Format(key_token.value));
    2860:	sub    rsp,0x8
    2864:	mov    edx,0x164
    2869:	mov    r9d,ebx
    286c:	mov    edi,0x1
    2871:	push   r10
    2873:	lea    rcx,[rip+0x24e6]        # 4d60 <JSON_Token_Type_strings>
    287a:	lea    rsi,[rip+0x783]        # 3004 <_IO_stdin_used+0x4>
    2881:	mov    r8,QWORD PTR [rcx+rax*8]
    2885:	xor    eax,eax
    2887:	lea    rcx,[rip+0xbb2]        # 3440 <_IO_stdin_used+0x440>
    288e:	mov    QWORD PTR [rsp+0x28],r10
    2893:	call   2040 <log_message>
    2898:	pop    rax
    2899:	pop    rdx
    289a:	mov    r10,QWORD PTR [rsp+0x18]
    289f:	lea    rbp,[rsp+0x60]
    JSON_Token value_token = {0};
    28a4:	xor    eax,eax
    28a6:	cs nop WORD PTR [rax+rax*1+0x0]
    JSON_Object *object = parse_json_object(arena, parser, key_token.value, value_token);
    28b0:	mov    QWORD PTR [rsp+0x30],rbx
    28b5:	sub    rsp,0x20
    28b9:	mov    rsi,r15
    28bc:	mov    QWORD PTR [rsp+0x48],r10
    28c1:	mov    DWORD PTR [rsp+0x60],eax
    28c5:	movdqa xmm0,XMMWORD PTR [rsp+0x60]
    28cb:	mov    rax,QWORD PTR [rsp+0x70]
    28d0:	mov    rdx,QWORD PTR [rsp+0x48]
    28d5:	mov    rcx,QWORD PTR [rsp+0x50]
    28da:	mov    rdi,QWORD PTR [rsp+0x30]
    28df:	movups XMMWORD PTR [rsp],xmm0
    28e3:	mov    QWORD PTR [rsp+0x10],rax
    28e8:	call   2ab0 <parse_json_object>
      if (!first_child)
    28ed:	add    rsp,0x20
    JSON_Object *object = parse_json_object(arena, parser, key_token.value, value_token);
    28f1:	mov    rbx,rax
      if (!first_child)
    28f4:	test   r14,r14
    28f7:	je     29b0 <parse_json_children+0x250>
        current_last_child->next_sibling = object;
    28fd:	mov    QWORD PTR [r12+0x28],rax
    JSON_Token expect_comma_or_end = get_json_token(parser);
    2902:	mov    rsi,r15
    2905:	mov    rdi,rbp
    2908:	call   2490 <get_json_token>
    290d:	mov    eax,DWORD PTR [rsp+0x60]
    if (expect_comma_or_end.type == end_token)
    2911:	cmp    r13d,eax
    2914:	je     2a20 <parse_json_children+0x2c0>
    else if (expect_comma_or_end.type != JSON_TOKEN_COMMA)
    291a:	cmp    eax,0x5
    291d:	je     296c <parse_json_children+0x20c>
      LOG_ERROR("Expected comma, parsed Token :: Type = %s, Value = '%.*s', \n", JSON_Token_Type_strings[expect_comma_or_end.type],
    291f:	mov    r9,QWORD PTR [rsp+0x70]
    2924:	sub    rsp,0x18
    2928:	lea    rcx,[rip+0x2431]        # 4d60 <JSON_Token_Type_strings>
    292f:	mov    edx,0x18b
    2934:	movdqa xmm0,XMMWORD PTR [rsp+0x78]
    293a:	mov    r8,QWORD PTR [rcx+rax*8]
    293e:	mov    edi,0x1
    2943:	xor    eax,eax
    2945:	mov    QWORD PTR [rsp+0x10],r9
    294a:	lea    rcx,[rip+0xb17]        # 3468 <_IO_stdin_used+0x468>
    2951:	lea    rsi,[rip+0x6ac]        # 3004 <_IO_stdin_used+0x4>
    2958:	movups XMMWORD PTR [rsp],xmm0
    295c:	push   QWORD PTR [rsp+0x80]
    2963:	call   2040 <log_message>
    2968:	add    rsp,0x20
  while (parser_incomplete(parser))
    296c:	mov    rax,QWORD PTR [r15+0x8]
    2970:	cmp    QWORD PTR [r15+0x10],rax
    2974:	jae    2a20 <parse_json_children+0x2c0>
    297a:	mov    r12,rbx
    297d:	jmp    2810 <parse_json_children+0xb0>
    2982:	nop    WORD PTR [rax+rax*1+0x0]
      value_token = get_json_token(parser);
    2988:	lea    rdi,[rsp+0x40]
    298d:	mov    rsi,r15
    JSON_Token key_token = {0};
    2990:	xor    ebx,ebx
      value_token = get_json_token(parser);
    2992:	call   2490 <get_json_token>
    2997:	mov    eax,DWORD PTR [rsp+0x40]
    JSON_Token key_token = {0};
    299b:	xor    r10d,r10d
    if (value_token.type == end_token)
    299e:	cmp    eax,r13d
    29a1:	je     2a20 <parse_json_children+0x2c0>
    29a3:	lea    rbp,[rsp+0x60]
    29a8:	jmp    28b0 <parse_json_children+0x150>
    29ad:	nop    DWORD PTR [rax]
        first_child        = object;
    29b0:	mov    r14,rax
    29b3:	jmp    2902 <parse_json_children+0x1a2>
    29b8:	nop    DWORD PTR [rax+rax*1+0x0]
        JSON_Token expect_colon = get_json_token(parser);
    29c0:	lea    rbp,[rsp+0x60]
    29c5:	mov    rsi,r15
    29c8:	mov    QWORD PTR [rsp+0x18],r10
    29cd:	mov    rdi,rbp
    29d0:	call   2490 <get_json_token>
        if (expect_colon.type == JSON_TOKEN_COLON)
    29d5:	cmp    DWORD PTR [rsp+0x60],0x6
    29da:	je     2a90 <parse_json_children+0x330>
          LOG_ERROR("Expected colon after key: %*.s", String_Format(key_token.value));
    29e0:	mov    r9,QWORD PTR [rsp+0x18]
    29e5:	mov    r8d,ebx
    29e8:	mov    edx,0x15f
    29ed:	xor    eax,eax
    29ef:	lea    rcx,[rip+0xa2a]        # 3420 <_IO_stdin_used+0x420>
    29f6:	lea    rsi,[rip+0x607]        # 3004 <_IO_stdin_used+0x4>
    29fd:	mov    edi,0x1
    2a02:	call   2040 <log_message>
    if (value_token.type == end_token)
    2a07:	mov    r10,QWORD PTR [rsp+0x18]
    2a0c:	jmp    28a4 <parse_json_children+0x144>
  JSON_Object *first_child        = NULL;
    2a11:	xor    r14d,r14d
    2a14:	nop
    2a15:	data16 cs nop WORD PTR [rax+rax*1+0x0]
  profile_end_func();
    2a20:	sub    rsp,0x40
    2a24:	movdqa xmm0,XMMWORD PTR [rsp+0xc0]
    2a2d:	mov    rax,QWORD PTR [rsp+0xf0]
    2a35:	movups XMMWORD PTR [rsp],xmm0
    2a39:	movdqa xmm0,XMMWORD PTR [rsp+0xd0]
    2a42:	mov    QWORD PTR [rsp+0x30],rax
    2a47:	movups XMMWORD PTR [rsp+0x10],xmm0
    2a4c:	movdqa xmm0,XMMWORD PTR [rsp+0xe0]
    2a55:	movups XMMWORD PTR [rsp+0x20],xmm0
    2a5a:	call   1e80 <__profile_end_pass.constprop.0>
  return first_child;
    2a5f:	add    rsp,0x40
}
    2a63:	mov    rax,QWORD PTR [rsp+0xb8]
    2a6b:	sub    rax,QWORD PTR fs:0x28
    2a74:	jne    2aab <parse_json_children+0x34b>
    2a76:	add    rsp,0xc8
    2a7d:	mov    rax,r14
    2a80:	pop    rbx
    2a81:	pop    rbp
    2a82:	pop    r12
    2a84:	pop    r13
    2a86:	pop    r14
    2a88:	pop    r15
    2a8a:	ret
    2a8b:	nop    DWORD PTR [rax+rax*1+0x0]
          value_token = get_json_token(parser);
    2a90:	lea    rdi,[rsp+0x40]
    2a95:	mov    rsi,r15
    2a98:	call   2490 <get_json_token>
    2a9d:	mov    eax,DWORD PTR [rsp+0x40]
    2aa1:	mov    r10,QWORD PTR [rsp+0x18]
    2aa6:	jmp    299e <parse_json_children+0x23e>
}
    2aab:	call   1060 <__stack_chk_fail@plt>

0000000000002ab0 <parse_json_object>:
{
    2ab0:	push   r13
    2ab2:	mov    r9,rdi
    2ab5:	mov    r13,rcx
    2ab8:	mov    rdi,rsi
    2abb:	push   r12
    2abd:	mov    r12,rdx
    2ac0:	push   rbx
    2ac1:	sub    rsp,0x50
    .parent_index = g_profiler.current_parent_zone,
    2ac5:	mov    rsi,QWORD PTR [rip+0x265c]        # 5128 <g_profiler+0x8>
  g_profiler.current_parent_zone = zone_index;
    2acc:	mov    QWORD PTR [rip+0x2651],0x1        # 5128 <g_profiler+0x8>
    2ad7:	mov    ecx,DWORD PTR [rsp+0x70]
    2adb:	rdtsc
  return pass;
    2add:	lea    rbx,[rip+0xdec]        # 38d0 <__func__.3>
    2ae4:	shl    rdx,0x20
    2ae8:	mov    QWORD PTR [rsp+0x10],rbx
    2aed:	or     rax,rdx
    2af0:	mov    QWORD PTR [rsp+0x38],rsi
    first_child = parse_json_children(arena, parser, JSON_TOKEN_CLOSE_CURLY_BRACE, has_keys);
    2af5:	mov    edx,0x2
    2afa:	mov    QWORD PTR [rsp+0x18],0x11
    2b03:	movq   xmm0,rax
    2b08:	movhps xmm0,QWORD PTR [rip+0x2669]        # 5178 <g_profiler+0x58>
    2b0f:	mov    QWORD PTR [rsp+0x30],0x1
    2b18:	mov    QWORD PTR [rsp+0x40],0x0
    2b21:	movaps XMMWORD PTR [rsp+0x20],xmm0
  if (token.type == JSON_TOKEN_OPEN_CURLY_BRACE)
    2b26:	cmp    ecx,0x1
    2b29:	je     2c17 <parse_json_object+0x167>
  else if (token.type == JSON_TOKEN_OPEN_SQUARE_BRACE)
    2b2f:	cmp    ecx,0x3
    2b32:	je     2c10 <parse_json_object+0x160>
  b32 is_value_type = (type == JSON_TOKEN_STRING ||
    2b38:	lea    eax,[rcx-0x7]
                       type == JSON_TOKEN_NULL   ||
    2b3b:	cmp    eax,0x4
    2b3e:	ja     2bc0 <parse_json_object+0x110>
  JSON_Object *first_child = NULL;
    2b44:	xor    ebx,ebx
  JSON_Object *result  = arena_new(arena, JSON_Object);
    2b46:	mov    edx,0x8
    2b4b:	mov    esi,0x30
    2b50:	mov    rdi,r9
    2b53:	call   22c0 <arena_alloc>
  result->value        = token.value;
    2b58:	movdqu xmm0,XMMWORD PTR [rsp+0x78]
  profile_end_func();
    2b5e:	sub    rsp,0x40
  result->key          = key;
    2b62:	mov    QWORD PTR [rax],r12
  JSON_Object *result  = arena_new(arena, JSON_Object);
    2b65:	mov    r10,rax
  result->value        = token.value;
    2b68:	movups XMMWORD PTR [rax+0x10],xmm0
  profile_end_func();
    2b6c:	movdqa xmm0,XMMWORD PTR [rsp+0x50]
  result->key          = key;
    2b72:	mov    QWORD PTR [rax+0x8],r13
  result->first_child  = first_child;
    2b76:	mov    QWORD PTR [rax+0x20],rbx
  result->next_sibling = NULL;
    2b7a:	mov    QWORD PTR [rax+0x28],0x0
  profile_end_func();
    2b82:	mov    rax,QWORD PTR [rsp+0x80]
    2b8a:	movups XMMWORD PTR [rsp],xmm0
    2b8e:	movdqa xmm0,XMMWORD PTR [rsp+0x60]
    2b94:	mov    QWORD PTR [rsp+0x30],rax
    2b99:	movups XMMWORD PTR [rsp+0x10],xmm0
    2b9e:	movdqa xmm0,XMMWORD PTR [rsp+0x70]
    2ba4:	movups XMMWORD PTR [rsp+0x20],xmm0
    2ba9:	call   1e80 <__profile_end_pass.constprop.0>
}
    2bae:	add    rsp,0x90
    2bb5:	mov    rax,r10
    2bb8:	pop    rbx
    2bb9:	pop    r12
    2bbb:	pop    r13
    2bbd:	ret
    2bbe:	xchg   ax,ax
    2bc0:	mov    QWORD PTR [rsp+0x8],r9
    LOG_ERROR("Unexpected token type encountered while parsing json object: %s, (value = %.*s)", JSON_Token_Type_strings[token.type], token.value);
    2bc5:	lea    rax,[rip+0x2194]        # 4d60 <JSON_Token_Type_strings>
    2bcc:	mov    edx,0x134
    2bd1:	lea    rsi,[rip+0x42c]        # 3004 <_IO_stdin_used+0x4>
    2bd8:	push   QWORD PTR [rsp+0x80]
    2bdf:	mov    r8,QWORD PTR [rax+rcx*8]
    2be3:	mov    edi,0x1
    2be8:	xor    eax,eax
    2bea:	push   QWORD PTR [rsp+0x80]
    2bf1:	lea    rcx,[rip+0x8b0]        # 34a8 <_IO_stdin_used+0x4a8>
    2bf8:	call   2040 <log_message>
    2bfd:	pop    rax
    2bfe:	pop    rdx
    2bff:	mov    r9,QWORD PTR [rsp+0x8]
    2c04:	jmp    2b44 <parse_json_object+0x94>
    2c09:	nop    DWORD PTR [rax+0x0]
    first_child = parse_json_children(arena, parser, JSON_TOKEN_CLOSE_SQUARE_BRACE, has_keys);
    2c10:	xor    ecx,ecx
    2c12:	mov    edx,0x4
    2c17:	mov    rsi,rdi
    2c1a:	mov    rdi,r9
    2c1d:	mov    QWORD PTR [rsp+0x8],r9
    2c22:	call   2760 <parse_json_children>
    2c27:	mov    r9,QWORD PTR [rsp+0x8]
    2c2c:	mov    rbx,rax
    2c2f:	jmp    2b46 <parse_json_object+0x96>
    2c34:	nop
    2c35:	data16 cs nop WORD PTR [rax+rax*1+0x0]

0000000000002c40 <json_token_type_is_value_type>:
  b32 is_value_type = (type == JSON_TOKEN_STRING ||
    2c40:	sub    edi,0x7
                       type == JSON_TOKEN_NULL   ||
    2c43:	xor    eax,eax
    2c45:	cmp    edi,0x4
    2c48:	setbe  al
}
    2c4b:	ret
    2c4c:	nop    DWORD PTR [rax+0x0]

0000000000002c50 <json_object_to_f64>:
  ASSERT(object, "Must pass valid object to f64 conversion");
    2c50:	test   rdi,rdi
    2c53:	je     1234 <json_object_to_f64.cold>

  String val = object->value;
    2c59:	mov    rcx,QWORD PTR [rdi+0x18]
  // Get sign.
  usize at = 0;

  f64 sign = 1.0;
  if (val.count > at && val.data[at] == '-')
    2c5d:	pxor   xmm0,xmm0
    2c61:	test   rcx,rcx
    2c64:	je     2cff <json_object_to_f64+0xaf>
  String val = object->value;
    2c6a:	mov    rsi,QWORD PTR [rdi+0x10]
  if (val.count > at && val.data[at] == '-')
    2c6e:	cmp    BYTE PTR [rsi],0x2d
    2c71:	je     2d00 <json_object_to_f64+0xb0>
  f64 sign = 1.0;
    2c77:	movsd  xmm4,QWORD PTR [rip+0xcf1]        # 3970 <__PRETTY_FUNCTION__.9+0x20>
  usize at = 0;
    2c7f:	xor    edx,edx
  {
    u8 digit = val.data[at] - (u8)'0';
    if (digit < 10)
    {
      // We go left to right so each previous result is 10 times bigger
      result = 10 * result + (f64)digit;
    2c81:	movsd  xmm2,QWORD PTR [rip+0xcff]        # 3988 <__PRETTY_FUNCTION__.9+0x38>
  f64 result = 0.0;
    2c89:	pxor   xmm0,xmm0
    2c8d:	jmp    2cdc <json_object_to_f64+0x8c>
    2c8f:	nop    DWORD PTR [rax+rax*1+0x0]
    2c94:	data16 cs nop WORD PTR [rax+rax*1+0x0]
    2c9f:	data16 cs nop WORD PTR [rax+rax*1+0x0]
    2caa:	data16 cs nop WORD PTR [rax+rax*1+0x0]
    2cb5:	data16 cs nop WORD PTR [rax+rax*1+0x0]
      result = 10 * result + (f64)digit;
    2cc0:	mulsd  xmm0,xmm2
    2cc4:	movzx  eax,al
    2cc7:	pxor   xmm1,xmm1
      at += 1;
    2ccb:	add    rdx,0x1
      result = 10 * result + (f64)digit;
    2ccf:	cvtsi2sd xmm1,eax
    2cd3:	addsd  xmm0,xmm1
  while (at < val.count)
    2cd7:	cmp    rdx,rcx
    2cda:	jae    2cf2 <json_object_to_f64+0xa2>
    u8 digit = val.data[at] - (u8)'0';
    2cdc:	movzx  eax,BYTE PTR [rsi+rdx*1]
    2ce0:	sub    eax,0x30
    if (digit < 10)
    2ce3:	cmp    al,0x9
    2ce5:	jbe    2cc0 <json_object_to_f64+0x70>
      break;
    }
  }

  // After decimal (if there)
  if (at < val.count && val.data[at] == '.')
    2ce7:	cmp    rdx,rcx
    2cea:	jae    2cf2 <json_object_to_f64+0xa2>
    2cec:	cmp    BYTE PTR [rsi+rdx*1],0x2e
    2cf0:	je     2d20 <json_object_to_f64+0xd0>
        break;
      }
    }
  }

  return sign * result;
    2cf2:	mulsd  xmm0,xmm4
    2cf6:	ret
  while (at < val.count)
    2cf7:	movsd  xmm0,QWORD PTR [rip+0xc81]        # 3980 <__PRETTY_FUNCTION__.9+0x30>
}
    2cff:	ret
  while (at < val.count)
    2d00:	cmp    rcx,0x1
    2d04:	je     2cf7 <json_object_to_f64+0xa7>
    2d06:	movsd  xmm4,QWORD PTR [rip+0xc5a]        # 3968 <__PRETTY_FUNCTION__.9+0x18>
    2d0e:	mov    edx,0x1
    2d13:	jmp    2c81 <json_object_to_f64+0x31>
    2d18:	nop    DWORD PTR [rax+rax*1+0x0]
    at += 1;
    2d20:	add    rdx,0x1
    while (at < val.count)
    2d24:	cmp    rdx,rcx
    2d27:	jae    2cf2 <json_object_to_f64+0xa2>
    f64 factor = 1.0 / 10.0;
    2d29:	movsd  xmm3,QWORD PTR [rip+0xc47]        # 3978 <__PRETTY_FUNCTION__.9+0x28>
    2d31:	movapd xmm2,xmm3
    2d35:	jmp    2d60 <json_object_to_f64+0x110>
    2d37:	nop    WORD PTR [rax+rax*1+0x0]
        result = result + factor * (f64)digit;
    2d40:	movzx  eax,al
    2d43:	pxor   xmm1,xmm1
        at += 1;
    2d47:	add    rdx,0x1
        result = result + factor * (f64)digit;
    2d4b:	cvtsi2sd xmm1,eax
    2d4f:	mulsd  xmm1,xmm2
        factor *= 1.0 / 10.0;
    2d53:	mulsd  xmm2,xmm3
        result = result + factor * (f64)digit;
    2d57:	addsd  xmm0,xmm1
    while (at < val.count)
    2d5b:	cmp    rdx,rcx
    2d5e:	jae    2cf2 <json_object_to_f64+0xa2>
      u8 digit = val.data[at] - (u8)'0';
    2d60:	movzx  eax,BYTE PTR [rsi+rdx*1]
    2d64:	sub    eax,0x30
      if (digit < 10)
    2d67:	cmp    al,0x9
    2d69:	jbe    2d40 <json_object_to_f64+0xf0>
    2d6b:	jmp    2cf2 <json_object_to_f64+0xa2>

Disassembly of section .fini:

0000000000002d70 <_fini>:
    2d70:	endbr64
    2d74:	sub    rsp,0x8
    2d78:	add    rsp,0x8
    2d7c:	ret

calc.x:     file format elf64-x86-64


Disassembly of section .init:

0000000000001000 <_init>:
    1000:	endbr64
    1004:	sub    rsp,0x8
    1008:	mov    rax,QWORD PTR [rip+0x4fc1]        # 5fd0 <__gmon_start__@Base>
    100f:	test   rax,rax
    1012:	je     1016 <_init+0x16>
    1014:	call   rax
    1016:	add    rsp,0x8
    101a:	ret

Disassembly of section .plt:

0000000000001020 <free@plt-0x10>:
    1020:	push   QWORD PTR [rip+0x4fca]        # 5ff0 <_GLOBAL_OFFSET_TABLE_+0x8>
    1026:	jmp    QWORD PTR [rip+0x4fcc]        # 5ff8 <_GLOBAL_OFFSET_TABLE_+0x10>
    102c:	nop    DWORD PTR [rax+0x0]

0000000000001030 <free@plt>:
    1030:	jmp    QWORD PTR [rip+0x4fca]        # 6000 <free@GLIBC_2.2.5>
    1036:	push   0x0
    103b:	jmp    1020 <_init+0x20>

0000000000001040 <fread@plt>:
    1040:	jmp    QWORD PTR [rip+0x4fc2]        # 6008 <fread@GLIBC_2.2.5>
    1046:	push   0x1
    104b:	jmp    1020 <_init+0x20>

0000000000001050 <fclose@plt>:
    1050:	jmp    QWORD PTR [rip+0x4fba]        # 6010 <fclose@GLIBC_2.2.5>
    1056:	push   0x2
    105b:	jmp    1020 <_init+0x20>

0000000000001060 <__stack_chk_fail@plt>:
    1060:	jmp    QWORD PTR [rip+0x4fb2]        # 6018 <__stack_chk_fail@GLIBC_2.4>
    1066:	push   0x3
    106b:	jmp    1020 <_init+0x20>

0000000000001070 <printf@plt>:
    1070:	jmp    QWORD PTR [rip+0x4faa]        # 6020 <printf@GLIBC_2.2.5>
    1076:	push   0x4
    107b:	jmp    1020 <_init+0x20>

0000000000001080 <gettimeofday@plt>:
    1080:	jmp    QWORD PTR [rip+0x4fa2]        # 6028 <gettimeofday@GLIBC_2.2.5>
    1086:	push   0x5
    108b:	jmp    1020 <_init+0x20>

0000000000001090 <__assert_fail@plt>:
    1090:	jmp    QWORD PTR [rip+0x4f9a]        # 6030 <__assert_fail@GLIBC_2.2.5>
    1096:	push   0x6
    109b:	jmp    1020 <_init+0x20>

00000000000010a0 <memset@plt>:
    10a0:	jmp    QWORD PTR [rip+0x4f92]        # 6038 <memset@GLIBC_2.2.5>
    10a6:	push   0x7
    10ab:	jmp    1020 <_init+0x20>

00000000000010b0 <cos@plt>:
    10b0:	jmp    QWORD PTR [rip+0x4f8a]        # 6040 <cos@GLIBC_2.2.5>
    10b6:	push   0x8
    10bb:	jmp    1020 <_init+0x20>

00000000000010c0 <fputc@plt>:
    10c0:	jmp    QWORD PTR [rip+0x4f82]        # 6048 <fputc@GLIBC_2.2.5>
    10c6:	push   0x9
    10cb:	jmp    1020 <_init+0x20>

00000000000010d0 <memcmp@plt>:
    10d0:	jmp    QWORD PTR [rip+0x4f7a]        # 6050 <memcmp@GLIBC_2.2.5>
    10d6:	push   0xa
    10db:	jmp    1020 <_init+0x20>

00000000000010e0 <calloc@plt>:
    10e0:	jmp    QWORD PTR [rip+0x4f72]        # 6058 <calloc@GLIBC_2.2.5>
    10e6:	push   0xb
    10eb:	jmp    1020 <_init+0x20>

00000000000010f0 <fprintf@plt>:
    10f0:	jmp    QWORD PTR [rip+0x4f6a]        # 6060 <fprintf@GLIBC_2.2.5>
    10f6:	push   0xc
    10fb:	jmp    1020 <_init+0x20>

0000000000001100 <stat@plt>:
    1100:	jmp    QWORD PTR [rip+0x4f62]        # 6068 <stat@GLIBC_2.33>
    1106:	push   0xd
    110b:	jmp    1020 <_init+0x20>

0000000000001110 <fopen@plt>:
    1110:	jmp    QWORD PTR [rip+0x4f5a]        # 6070 <fopen@GLIBC_2.2.5>
    1116:	push   0xe
    111b:	jmp    1020 <_init+0x20>

0000000000001120 <vfprintf@plt>:
    1120:	jmp    QWORD PTR [rip+0x4f52]        # 6078 <vfprintf@GLIBC_2.2.5>
    1126:	push   0xf
    112b:	jmp    1020 <_init+0x20>

0000000000001130 <sin@plt>:
    1130:	jmp    QWORD PTR [rip+0x4f4a]        # 6080 <sin@GLIBC_2.2.5>
    1136:	push   0x10
    113b:	jmp    1020 <_init+0x20>

0000000000001140 <asin@plt>:
    1140:	jmp    QWORD PTR [rip+0x4f42]        # 6088 <asin@GLIBC_2.2.5>
    1146:	push   0x11
    114b:	jmp    1020 <_init+0x20>

0000000000001150 <exit@plt>:
    1150:	jmp    QWORD PTR [rip+0x4f3a]        # 6090 <exit@GLIBC_2.2.5>
    1156:	push   0x12
    115b:	jmp    1020 <_init+0x20>

0000000000001160 <sqrt@plt>:
    1160:	jmp    QWORD PTR [rip+0x4f32]        # 6098 <sqrt@GLIBC_2.2.5>
    1166:	push   0x13
    116b:	jmp    1020 <_init+0x20>

Disassembly of section .text:

0000000000001170 <_start>:
    1170:	endbr64
    1174:	xor    ebp,ebp
    1176:	mov    r9,rdx
    1179:	pop    rsi
    117a:	mov    rdx,rsp
    117d:	and    rsp,0xfffffffffffffff0
    1181:	push   rax
    1182:	push   rsp
    1183:	xor    r8d,r8d
    1186:	xor    ecx,ecx
    1188:	lea    rdi,[rip+0x2114]        # 32a3 <main>
    118f:	call   QWORD PTR [rip+0x4e2b]        # 5fc0 <__libc_start_main@GLIBC_2.34>
    1195:	hlt
    1196:	cs nop WORD PTR [rax+rax*1+0x0]
    11a0:	lea    rdi,[rip+0x4fa1]        # 6148 <__TMC_END__>
    11a7:	lea    rax,[rip+0x4f9a]        # 6148 <__TMC_END__>
    11ae:	cmp    rax,rdi
    11b1:	je     11c8 <_start+0x58>
    11b3:	mov    rax,QWORD PTR [rip+0x4e0e]        # 5fc8 <_ITM_deregisterTMCloneTable@Base>
    11ba:	test   rax,rax
    11bd:	je     11c8 <_start+0x58>
    11bf:	jmp    rax
    11c1:	nop    DWORD PTR [rax+0x0]
    11c8:	ret
    11c9:	nop    DWORD PTR [rax+0x0]
    11d0:	lea    rdi,[rip+0x4f71]        # 6148 <__TMC_END__>
    11d7:	lea    rsi,[rip+0x4f6a]        # 6148 <__TMC_END__>
    11de:	sub    rsi,rdi
    11e1:	mov    rax,rsi
    11e4:	shr    rsi,0x3f
    11e8:	sar    rax,0x3
    11ec:	add    rsi,rax
    11ef:	sar    rsi,1
    11f2:	je     1208 <_start+0x98>
    11f4:	mov    rax,QWORD PTR [rip+0x4ddd]        # 5fd8 <_ITM_registerTMCloneTable@Base>
    11fb:	test   rax,rax
    11fe:	je     1208 <_start+0x98>
    1200:	jmp    rax
    1202:	nop    WORD PTR [rax+rax*1+0x0]
    1208:	ret
    1209:	nop    DWORD PTR [rax+0x0]
    1210:	endbr64
    1214:	cmp    BYTE PTR [rip+0x4f6d],0x0        # 6188 <stderr@GLIBC_2.2.5+0x8>
    121b:	jne    1250 <_start+0xe0>
    121d:	push   rbp
    121e:	cmp    QWORD PTR [rip+0x4dba],0x0        # 5fe0 <__cxa_finalize@GLIBC_2.2.5>
    1226:	mov    rbp,rsp
    1229:	je     1238 <_start+0xc8>
    122b:	mov    rdi,QWORD PTR [rip+0x4e76]        # 60a8 <__dso_handle>
    1232:	call   QWORD PTR [rip+0x4da8]        # 5fe0 <__cxa_finalize@GLIBC_2.2.5>
    1238:	call   11a0 <_start+0x30>
    123d:	mov    BYTE PTR [rip+0x4f44],0x1        # 6188 <stderr@GLIBC_2.2.5+0x8>
    1244:	pop    rbp
    1245:	ret
    1246:	cs nop WORD PTR [rax+rax*1+0x0]
    1250:	ret
    1251:	nop    DWORD PTR [rax+0x0]
    1255:	data16 cs nop WORD PTR [rax+rax*1+0x0]
    1260:	endbr64
    1264:	jmp    11d0 <_start+0x60>

0000000000001269 <read_file_to_memory>:
////////////////
// #define COMMON_IMPLEMENTATION
#ifdef COMMON_IMPLEMENTATION
// Returns size of file, or 0 if it can't open the file
usize read_file_to_memory(const char *name, u8 *buffer, usize buffer_size)
{
    1269:	push   rbp
    126a:	mov    rbp,rsp
    126d:	sub    rsp,0x30
    1271:	mov    QWORD PTR [rbp-0x18],rdi
    1275:	mov    QWORD PTR [rbp-0x20],rsi
    1279:	mov    QWORD PTR [rbp-0x28],rdx
  FILE *file = fopen(name, "rb");
    127d:	lea    rdx,[rip+0x2d8c]        # 4010 <_IO_stdin_used+0x10>
    1284:	mov    rax,QWORD PTR [rbp-0x18]
    1288:	mov    rsi,rdx
    128b:	mov    rdi,rax
    128e:	call   1110 <fopen@plt>
    1293:	mov    QWORD PTR [rbp-0x10],rax
  if (file == NULL)
    1297:	cmp    QWORD PTR [rbp-0x10],0x0
    129c:	jne    12d4 <read_file_to_memory+0x6b>
  {
    LOG_ERROR("Unable to open file: %s", name);
    129e:	mov    rcx,QWORD PTR [rbp-0x18]
    12a2:	lea    rdx,[rip+0x2d6a]        # 4013 <_IO_stdin_used+0x13>
    12a9:	lea    rax,[rip+0x2d7b]        # 402b <_IO_stdin_used+0x2b>
    12b0:	mov    r8,rcx
    12b3:	mov    rcx,rdx
    12b6:	mov    edx,0x17b
    12bb:	mov    rsi,rax
    12be:	mov    edi,0x1
    12c3:	mov    eax,0x0
    12c8:	call   14a1 <log_message>
    return 0;
    12cd:	mov    eax,0x0
    12d2:	jmp    1301 <read_file_to_memory+0x98>
  }

  usize byte_count = fread(buffer, sizeof(u8), buffer_size, file);
    12d4:	mov    rcx,QWORD PTR [rbp-0x10]
    12d8:	mov    rdx,QWORD PTR [rbp-0x28]
    12dc:	mov    rax,QWORD PTR [rbp-0x20]
    12e0:	mov    esi,0x1
    12e5:	mov    rdi,rax
    12e8:	call   1040 <fread@plt>
    12ed:	mov    QWORD PTR [rbp-0x8],rax
  fclose(file);
    12f1:	mov    rax,QWORD PTR [rbp-0x10]
    12f5:	mov    rdi,rax
    12f8:	call   1050 <fclose@plt>

  return byte_count;
    12fd:	mov    rax,QWORD PTR [rbp-0x8]
}
    1301:	leave
    1302:	ret

0000000000001303 <file_size>:

usize file_size(const char *name)
{
    1303:	push   rbp
    1304:	mov    rbp,rsp
    1307:	sub    rsp,0xb0
    130e:	mov    QWORD PTR [rbp-0xa8],rdi
    1315:	mov    rax,QWORD PTR fs:0x28
    131e:	mov    QWORD PTR [rbp-0x8],rax
    1322:	xor    eax,eax
#if _WIN32
  struct __stat64 stats;
  _stat64(name, &stats);
#else
  struct stat stats;
  stat(name, &stats);
    1324:	lea    rdx,[rbp-0xa0]
    132b:	mov    rax,QWORD PTR [rbp-0xa8]
    1332:	mov    rsi,rdx
    1335:	mov    rdi,rax
    1338:	call   1100 <stat@plt>
#endif

  return stats.st_size;
    133d:	mov    rax,QWORD PTR [rbp-0x70]
}
    1341:	mov    rdx,QWORD PTR [rbp-0x8]
    1345:	sub    rdx,QWORD PTR fs:0x28
    134e:	je     1355 <file_size+0x52>
    1350:	call   1060 <__stack_chk_fail@plt>
    1355:	leave
    1356:	ret

0000000000001357 <read_file_to_arena>:

String read_file_to_arena(Arena *arena, const char *name)
{
    1357:	push   rbp
    1358:	mov    rbp,rsp
    135b:	sub    rsp,0x50
    135f:	mov    QWORD PTR [rbp-0x48],rdi
    1363:	mov    QWORD PTR [rbp-0x50],rsi
  usize buffer_size = file_size(name);
    1367:	mov    rax,QWORD PTR [rbp-0x50]
    136b:	mov    rdi,rax
    136e:	call   1303 <file_size>
    1373:	mov    QWORD PTR [rbp-0x40],rax

  // Just in case we fail reading we won't commit any allocations
  Arena save = *arena;
    1377:	mov    rcx,QWORD PTR [rbp-0x48]
    137b:	mov    rax,QWORD PTR [rcx]
    137e:	mov    rdx,QWORD PTR [rcx+0x8]
    1382:	mov    QWORD PTR [rbp-0x20],rax
    1386:	mov    QWORD PTR [rbp-0x18],rdx
    138a:	mov    rax,QWORD PTR [rcx+0x10]
    138e:	mov    rdx,QWORD PTR [rcx+0x18]
    1392:	mov    QWORD PTR [rbp-0x10],rax
    1396:	mov    QWORD PTR [rbp-0x8],rdx
  u8 *buffer = arena_calloc(arena, buffer_size, u8);
    139a:	mov    rcx,QWORD PTR [rbp-0x40]
    139e:	mov    rax,QWORD PTR [rbp-0x48]
    13a2:	mov    edx,0x1
    13a7:	mov    rsi,rcx
    13aa:	mov    rdi,rax
    13ad:	call   17d3 <arena_alloc>
    13b2:	mov    QWORD PTR [rbp-0x38],rax

  if (read_file_to_memory(name, buffer, buffer_size) != buffer_size)
    13b6:	mov    rdx,QWORD PTR [rbp-0x40]
    13ba:	mov    rcx,QWORD PTR [rbp-0x38]
    13be:	mov    rax,QWORD PTR [rbp-0x50]
    13c2:	mov    rsi,rcx
    13c5:	mov    rdi,rax
    13c8:	call   1269 <read_file_to_memory>
    13cd:	cmp    QWORD PTR [rbp-0x40],rax
    13d1:	je     1425 <read_file_to_arena+0xce>
  {
    LOG_ERROR("Unable to read file: %s", name);
    13d3:	mov    rcx,QWORD PTR [rbp-0x50]
    13d7:	lea    rdx,[rip+0x2c5a]        # 4038 <_IO_stdin_used+0x38>
    13de:	lea    rax,[rip+0x2c46]        # 402b <_IO_stdin_used+0x2b>
    13e5:	mov    r8,rcx
    13e8:	mov    rcx,rdx
    13eb:	mov    edx,0x19d
    13f0:	mov    rsi,rax
    13f3:	mov    edi,0x1
    13f8:	mov    eax,0x0
    13fd:	call   14a1 <log_message>
    *arena = save; // Rollback allocation
    1402:	mov    rcx,QWORD PTR [rbp-0x48]
    1406:	mov    rax,QWORD PTR [rbp-0x20]
    140a:	mov    rdx,QWORD PTR [rbp-0x18]
    140e:	mov    QWORD PTR [rcx],rax
    1411:	mov    QWORD PTR [rcx+0x8],rdx
    1415:	mov    rax,QWORD PTR [rbp-0x10]
    1419:	mov    rdx,QWORD PTR [rbp-0x8]
    141d:	mov    QWORD PTR [rcx+0x10],rax
    1421:	mov    QWORD PTR [rcx+0x18],rdx
  }

  String result =
    1425:	mov    rax,QWORD PTR [rbp-0x38]
    1429:	mov    QWORD PTR [rbp-0x30],rax
    142d:	mov    rax,QWORD PTR [rbp-0x40]
    1431:	mov    QWORD PTR [rbp-0x28],rax
  {
    .data  = buffer,
    .count = buffer_size,
  };

  return result;
    1435:	mov    rax,QWORD PTR [rbp-0x30]
    1439:	mov    rdx,QWORD PTR [rbp-0x28]
}
    143d:	leave
    143e:	ret

000000000000143f <strings_equal>:

b8 strings_equal(String a, String b)
{
    143f:	push   rbp
    1440:	mov    rbp,rsp
    1443:	sub    rsp,0x20
    1447:	mov    rax,rdi
    144a:	mov    r8,rsi
    144d:	mov    rsi,rax
    1450:	mov    edi,0x0
    1455:	mov    rdi,r8
    1458:	mov    QWORD PTR [rbp-0x10],rsi
    145c:	mov    QWORD PTR [rbp-0x8],rdi
    1460:	mov    QWORD PTR [rbp-0x20],rdx
    1464:	mov    QWORD PTR [rbp-0x18],rcx
  return a.count == b.count && memcmp(a.data, b.data, a.count) == 0;
    1468:	mov    rdx,QWORD PTR [rbp-0x8]
    146c:	mov    rax,QWORD PTR [rbp-0x18]
    1470:	cmp    rdx,rax
    1473:	jne    149a <strings_equal+0x5b>
    1475:	mov    rax,QWORD PTR [rbp-0x8]
    1479:	mov    rdx,rax
    147c:	mov    rcx,QWORD PTR [rbp-0x20]
    1480:	mov    rax,QWORD PTR [rbp-0x10]
    1484:	mov    rsi,rcx
    1487:	mov    rdi,rax
    148a:	call   10d0 <memcmp@plt>
    148f:	test   eax,eax
    1491:	jne    149a <strings_equal+0x5b>
    1493:	mov    eax,0x1
    1498:	jmp    149f <strings_equal+0x60>
    149a:	mov    eax,0x0
}
    149f:	leave
    14a0:	ret

00000000000014a1 <log_message>:
{
  LOG_ENUM(ENUM_STRING)
};

void log_message(Log_Level level, const char *file, usize line, const char *message, ...)
{
    14a1:	push   rbp
    14a2:	mov    rbp,rsp
    14a5:	sub    rsp,0x100
    14ac:	mov    DWORD PTR [rbp-0xe4],edi
    14b2:	mov    QWORD PTR [rbp-0xf0],rsi
    14b9:	mov    QWORD PTR [rbp-0xf8],rdx
    14c0:	mov    QWORD PTR [rbp-0x100],rcx
    14c7:	mov    QWORD PTR [rbp-0x90],r8
    14ce:	mov    QWORD PTR [rbp-0x88],r9
    14d5:	test   al,al
    14d7:	je     14f9 <log_message+0x58>
    14d9:	movaps XMMWORD PTR [rbp-0x80],xmm0
    14dd:	movaps XMMWORD PTR [rbp-0x70],xmm1
    14e1:	movaps XMMWORD PTR [rbp-0x60],xmm2
    14e5:	movaps XMMWORD PTR [rbp-0x50],xmm3
    14e9:	movaps XMMWORD PTR [rbp-0x40],xmm4
    14ed:	movaps XMMWORD PTR [rbp-0x30],xmm5
    14f1:	movaps XMMWORD PTR [rbp-0x20],xmm6
    14f5:	movaps XMMWORD PTR [rbp-0x10],xmm7
    14f9:	mov    rax,QWORD PTR fs:0x28
    1502:	mov    QWORD PTR [rbp-0xb8],rax
    1509:	xor    eax,eax
  FILE *stream = stderr;
    150b:	mov    rax,QWORD PTR [rip+0x4c6e]        # 6180 <stderr@GLIBC_2.2.5>
    1512:	mov    QWORD PTR [rbp-0xd8],rax
  if (level <= LOG_ERROR)
    1519:	cmp    DWORD PTR [rbp-0xe4],0x1
    1520:	ja     1569 <log_message+0xc8>
  {
    fprintf(stream, "[" LOG_TITLE " %s]: (%s:%lu) ", level_strings[level], file, line);
    1522:	mov    eax,DWORD PTR [rbp-0xe4]
    1528:	lea    rdx,[rax*8+0x0]
    1530:	lea    rax,[rip+0x4b89]        # 60c0 <level_strings>
    1537:	mov    rdx,QWORD PTR [rdx+rax*1]
    153b:	mov    rdi,QWORD PTR [rbp-0xf8]
    1542:	mov    rcx,QWORD PTR [rbp-0xf0]
    1549:	lea    rsi,[rip+0x2b27]        # 4077 <_IO_stdin_used+0x77>
    1550:	mov    rax,QWORD PTR [rbp-0xd8]
    1557:	mov    r8,rdi
    155a:	mov    rdi,rax
    155d:	mov    eax,0x0
    1562:	call   10f0 <fprintf@plt>
    1567:	jmp    15b7 <log_message+0x116>
  }
  else
  {
    if (level == LOG_INFO)
    1569:	cmp    DWORD PTR [rbp-0xe4],0x3
    1570:	jne    1580 <log_message+0xdf>
    {
      stream = stdout;
    1572:	mov    rax,QWORD PTR [rip+0x4be7]        # 6160 <stdout@GLIBC_2.2.5>
    1579:	mov    QWORD PTR [rbp-0xd8],rax
    }
    fprintf(stream, "[" LOG_TITLE " %s]: ", level_strings[level]);
    1580:	mov    eax,DWORD PTR [rbp-0xe4]
    1586:	lea    rdx,[rax*8+0x0]
    158e:	lea    rax,[rip+0x4b2b]        # 60c0 <level_strings>
    1595:	mov    rdx,QWORD PTR [rdx+rax*1]
    1599:	lea    rcx,[rip+0x2aee]        # 408e <_IO_stdin_used+0x8e>
    15a0:	mov    rax,QWORD PTR [rbp-0xd8]
    15a7:	mov    rsi,rcx
    15aa:	mov    rdi,rax
    15ad:	mov    eax,0x0
    15b2:	call   10f0 <fprintf@plt>
  }

  va_list args;
  va_start(args, message);
    15b7:	mov    DWORD PTR [rbp-0xd0],0x20
    15c1:	mov    DWORD PTR [rbp-0xcc],0x30
    15cb:	lea    rax,[rbp+0x10]
    15cf:	mov    QWORD PTR [rbp-0xc8],rax
    15d6:	lea    rax,[rbp-0xb0]
    15dd:	mov    QWORD PTR [rbp-0xc0],rax
  vfprintf(stream, message, args);
    15e4:	lea    rdx,[rbp-0xd0]
    15eb:	mov    rcx,QWORD PTR [rbp-0x100]
    15f2:	mov    rax,QWORD PTR [rbp-0xd8]
    15f9:	mov    rsi,rcx
    15fc:	mov    rdi,rax
    15ff:	call   1120 <vfprintf@plt>
  va_end(args);

  fprintf(stream, "\n");
    1604:	mov    rax,QWORD PTR [rbp-0xd8]
    160b:	mov    rsi,rax
    160e:	mov    edi,0xa
    1613:	call   10c0 <fputc@plt>
}
    1618:	nop
    1619:	mov    rax,QWORD PTR [rbp-0xb8]
    1620:	sub    rax,QWORD PTR fs:0x28
    1629:	je     1630 <log_message+0x18f>
    162b:	call   1060 <__stack_chk_fail@plt>
    1630:	leave
    1631:	ret

0000000000001632 <arena_make>:

Arena arena_make(isize reserve_size)
{
    1632:	push   rbp
    1633:	mov    rbp,rsp
    1636:	sub    rsp,0x30
    163a:	mov    QWORD PTR [rbp-0x28],rdi
    163e:	mov    QWORD PTR [rbp-0x30],rsi
  Arena arena = {0};
    1642:	pxor   xmm0,xmm0
    1646:	movaps XMMWORD PTR [rbp-0x20],xmm0
    164a:	movaps XMMWORD PTR [rbp-0x10],xmm0

  // NOTE(ss): Calloc will return page-aligned memory so I don't think it is
  // necessary to make sure that the alignment suffices
  arena.base = (u8 *)calloc(reserve_size, 1);
    164e:	mov    rax,QWORD PTR [rbp-0x30]
    1652:	mov    esi,0x1
    1657:	mov    rdi,rax
    165a:	call   10e0 <calloc@plt>
    165f:	mov    QWORD PTR [rbp-0x20],rax

  if (arena.base == NULL)
    1663:	mov    rax,QWORD PTR [rbp-0x20]
    1667:	test   rax,rax
    166a:	jne    169e <arena_make+0x6c>
  {
    LOG_FATAL("Failed to allocate arena memory", EXT_ARENA_ALLOCATION);
    166c:	lea    rdx,[rip+0x2a2d]        # 40a0 <_IO_stdin_used+0xa0>
    1673:	lea    rax,[rip+0x29b1]        # 402b <_IO_stdin_used+0x2b>
    167a:	mov    rcx,rdx
    167d:	mov    edx,0x1d9
    1682:	mov    rsi,rax
    1685:	mov    edi,0x0
    168a:	mov    eax,0x0
    168f:	call   14a1 <log_message>
    1694:	mov    edi,0xffffffff
    1699:	call   1150 <exit@plt>
    return arena;
  }

  arena.capacity = reserve_size;
    169e:	mov    rax,QWORD PTR [rbp-0x30]
    16a2:	mov    QWORD PTR [rbp-0x18],rax
  arena.next_offset = 0;
    16a6:	mov    QWORD PTR [rbp-0x10],0x0

  return arena;
    16ae:	mov    rcx,QWORD PTR [rbp-0x28]
    16b2:	mov    rax,QWORD PTR [rbp-0x20]
    16b6:	mov    rdx,QWORD PTR [rbp-0x18]
    16ba:	mov    QWORD PTR [rcx],rax
    16bd:	mov    QWORD PTR [rcx+0x8],rdx
    16c1:	mov    rax,QWORD PTR [rbp-0x10]
    16c5:	mov    rdx,QWORD PTR [rbp-0x8]
    16c9:	mov    QWORD PTR [rcx+0x10],rax
    16cd:	mov    QWORD PTR [rcx+0x18],rdx
}
    16d1:	mov    rax,QWORD PTR [rbp-0x28]
    16d5:	leave
    16d6:	ret

00000000000016d7 <arena_make_backed>:

Arena arena_make_backed(u8 *backing_buffer, isize backing_size)
{
    16d7:	push   rbp
    16d8:	mov    rbp,rsp
    16db:	sub    rsp,0x40
    16df:	mov    QWORD PTR [rbp-0x28],rdi
    16e3:	mov    QWORD PTR [rbp-0x30],rsi
    16e7:	mov    QWORD PTR [rbp-0x38],rdx
  ASSERT(backing_buffer != NULL, "Backing buffer for arena must not be NULL!");
    16eb:	cmp    QWORD PTR [rbp-0x30],0x0
    16f0:	jne    1717 <arena_make_backed+0x40>
    16f2:	lea    rdx,[rip+0x3097]        # 4790 <__PRETTY_FUNCTION__.9>
    16f9:	lea    rsi,[rip+0x292b]        # 402b <_IO_stdin_used+0x2b>
    1700:	lea    rax,[rip+0x29b9]        # 40c0 <_IO_stdin_used+0xc0>
    1707:	mov    rcx,rdx
    170a:	mov    edx,0x1e5
    170f:	mov    rdi,rax
    1712:	call   1090 <__assert_fail@plt>
  ASSERT(backing_size   != 0,    "Backing buffer size for arena must not be 0!");
    1717:	cmp    QWORD PTR [rbp-0x38],0x0
    171c:	jne    1743 <arena_make_backed+0x6c>
    171e:	lea    rdx,[rip+0x306b]        # 4790 <__PRETTY_FUNCTION__.9>
    1725:	lea    rsi,[rip+0x28ff]        # 402b <_IO_stdin_used+0x2b>
    172c:	lea    rax,[rip+0x29dd]        # 4110 <_IO_stdin_used+0x110>
    1733:	mov    rcx,rdx
    1736:	mov    edx,0x1e6
    173b:	mov    rdi,rax
    173e:	call   1090 <__assert_fail@plt>

  Arena arena = {0};
    1743:	pxor   xmm0,xmm0
    1747:	movaps XMMWORD PTR [rbp-0x20],xmm0
    174b:	movaps XMMWORD PTR [rbp-0x10],xmm0

  arena.base     = backing_buffer;
    174f:	mov    rax,QWORD PTR [rbp-0x30]
    1753:	mov    QWORD PTR [rbp-0x20],rax
  arena.capacity = backing_size;
    1757:	mov    rax,QWORD PTR [rbp-0x38]
    175b:	mov    QWORD PTR [rbp-0x18],rax

  // Shitty cpp compilers complain we don't do it like this
  arena.flags = (Arena_Flags)(arena.flags | ARENA_FLAG_BUFFER_BACKED);
    175f:	mov    eax,DWORD PTR [rbp-0x8]
    1762:	or     eax,0x1
    1765:	mov    DWORD PTR [rbp-0x8],eax

  return arena;
    1768:	mov    rcx,QWORD PTR [rbp-0x28]
    176c:	mov    rax,QWORD PTR [rbp-0x20]
    1770:	mov    rdx,QWORD PTR [rbp-0x18]
    1774:	mov    QWORD PTR [rcx],rax
    1777:	mov    QWORD PTR [rcx+0x8],rdx
    177b:	mov    rax,QWORD PTR [rbp-0x10]
    177f:	mov    rdx,QWORD PTR [rbp-0x8]
    1783:	mov    QWORD PTR [rcx+0x10],rax
    1787:	mov    QWORD PTR [rcx+0x18],rdx
}
    178b:	mov    rax,QWORD PTR [rbp-0x28]
    178f:	leave
    1790:	ret

0000000000001791 <arena_free>:

void arena_free(Arena *arena)
{
    1791:	push   rbp
    1792:	mov    rbp,rsp
    1795:	sub    rsp,0x10
    1799:	mov    QWORD PTR [rbp-0x8],rdi
  if (!(arena->flags & ARENA_FLAG_BUFFER_BACKED))
    179d:	mov    rax,QWORD PTR [rbp-0x8]
    17a1:	mov    eax,DWORD PTR [rax+0x18]
    17a4:	and    eax,0x1
    17a7:	test   eax,eax
    17a9:	jne    17ba <arena_free+0x29>
  {
    free(arena->base);
    17ab:	mov    rax,QWORD PTR [rbp-0x8]
    17af:	mov    rax,QWORD PTR [rax]
    17b2:	mov    rdi,rax
    17b5:	call   1030 <free@plt>
  }

  ZERO_STRUCT(arena);
    17ba:	mov    rax,QWORD PTR [rbp-0x8]
    17be:	mov    edx,0x20
    17c3:	mov    esi,0x0
    17c8:	mov    rdi,rax
    17cb:	call   10a0 <memset@plt>
}
    17d0:	nop
    17d1:	leave
    17d2:	ret

00000000000017d3 <arena_alloc>:

void *arena_alloc(Arena *arena, isize size, isize alignment) {
    17d3:	push   rbp
    17d4:	mov    rbp,rsp
    17d7:	sub    rsp,0x40
    17db:	mov    QWORD PTR [rbp-0x28],rdi
    17df:	mov    QWORD PTR [rbp-0x30],rsi
    17e3:	mov    QWORD PTR [rbp-0x38],rdx
  ASSERT(arena->base != NULL, "Arena memory is null");
    17e7:	mov    rax,QWORD PTR [rbp-0x28]
    17eb:	mov    rax,QWORD PTR [rax]
    17ee:	test   rax,rax
    17f1:	jne    1818 <arena_alloc+0x45>
    17f3:	lea    rdx,[rip+0x2fae]        # 47a8 <__PRETTY_FUNCTION__.8>
    17fa:	lea    rsi,[rip+0x282a]        # 402b <_IO_stdin_used+0x2b>
    1801:	lea    rax,[rip+0x2950]        # 4158 <_IO_stdin_used+0x158>
    1808:	mov    rcx,rdx
    180b:	mov    edx,0x1fe
    1810:	mov    rdi,rax
    1813:	call   1090 <__assert_fail@plt>

  isize aligned_offset = ALIGN_ROUND_UP(arena->next_offset, alignment);
    1818:	mov    rax,QWORD PTR [rbp-0x28]
    181c:	mov    rdx,QWORD PTR [rax+0x10]
    1820:	mov    rax,QWORD PTR [rbp-0x38]
    1824:	add    rax,rdx
    1827:	lea    rdx,[rax-0x1]
    182b:	mov    rax,QWORD PTR [rbp-0x38]
    182f:	neg    rax
    1832:	and    rax,rdx
    1835:	mov    QWORD PTR [rbp-0x18],rax

  // Do we need a bigger buffer?
  if ((aligned_offset + size) > arena->capacity)
    1839:	mov    rdx,QWORD PTR [rbp-0x18]
    183d:	mov    rax,QWORD PTR [rbp-0x30]
    1841:	add    rdx,rax
    1844:	mov    rax,QWORD PTR [rbp-0x28]
    1848:	mov    rax,QWORD PTR [rax+0x8]
    184c:	cmp    rdx,rax
    184f:	jle    18a4 <arena_alloc+0xd1>
  {
    u64 needed_capacity = aligned_offset + size;
    1851:	mov    rdx,QWORD PTR [rbp-0x18]
    1855:	mov    rax,QWORD PTR [rbp-0x30]
    1859:	add    rax,rdx
    185c:	mov    QWORD PTR [rbp-0x8],rax

    LOG_FATAL("Not enough memory in arena, NEED: %ld bytes HAVE: %ld bytes",
    1860:	mov    rax,QWORD PTR [rbp-0x28]
    1864:	mov    rsi,QWORD PTR [rax+0x8]
    1868:	mov    rcx,QWORD PTR [rbp-0x8]
    186c:	lea    rdx,[rip+0x291d]        # 4190 <_IO_stdin_used+0x190>
    1873:	lea    rax,[rip+0x27b1]        # 402b <_IO_stdin_used+0x2b>
    187a:	mov    r9,rsi
    187d:	mov    r8,rcx
    1880:	mov    rcx,rdx
    1883:	mov    edx,0x207
    1888:	mov    rsi,rax
    188b:	mov    edi,0x0
    1890:	mov    eax,0x0
    1895:	call   14a1 <log_message>
    189a:	mov    edi,0xffffffff
    189f:	call   1150 <exit@plt>
              EXT_ARENA_ALLOCATION, needed_capacity, arena->capacity);
    return NULL;
  }

  void *ptr = arena->base + aligned_offset;
    18a4:	mov    rax,QWORD PTR [rbp-0x28]
    18a8:	mov    rdx,QWORD PTR [rax]
    18ab:	mov    rax,QWORD PTR [rbp-0x18]
    18af:	add    rax,rdx
    18b2:	mov    QWORD PTR [rbp-0x10],rax
  ZERO_SIZE(ptr, size); // make sure memory is zeroed out
    18b6:	mov    rdx,QWORD PTR [rbp-0x30]
    18ba:	mov    rax,QWORD PTR [rbp-0x10]
    18be:	mov    esi,0x0
    18c3:	mov    rdi,rax
    18c6:	call   10a0 <memset@plt>

  // now move the offset
  arena->next_offset = aligned_offset + size;
    18cb:	mov    rdx,QWORD PTR [rbp-0x18]
    18cf:	mov    rax,QWORD PTR [rbp-0x30]
    18d3:	add    rdx,rax
    18d6:	mov    rax,QWORD PTR [rbp-0x28]
    18da:	mov    QWORD PTR [rax+0x10],rdx

  return ptr;
    18de:	mov    rax,QWORD PTR [rbp-0x10]
}
    18e2:	leave
    18e3:	ret

00000000000018e4 <arena_pop_to>:

void arena_pop_to(Arena *arena, isize offset)
{
    18e4:	push   rbp
    18e5:	mov    rbp,rsp
    18e8:	sub    rsp,0x10
    18ec:	mov    QWORD PTR [rbp-0x8],rdi
    18f0:	mov    QWORD PTR [rbp-0x10],rsi
  ASSERT(offset < arena->next_offset,
    18f4:	mov    rax,QWORD PTR [rbp-0x8]
    18f8:	mov    rax,QWORD PTR [rax+0x10]
    18fc:	cmp    QWORD PTR [rbp-0x10],rax
    1900:	jl     1927 <arena_pop_to+0x43>
    1902:	lea    rdx,[rip+0x2eaf]        # 47b8 <__PRETTY_FUNCTION__.7>
    1909:	lea    rsi,[rip+0x271b]        # 402b <_IO_stdin_used+0x2b>
    1910:	lea    rax,[rip+0x28b9]        # 41d0 <_IO_stdin_used+0x1d0>
    1917:	mov    rcx,rdx
    191a:	mov    edx,0x217
    191f:	mov    rdi,rax
    1922:	call   1090 <__assert_fail@plt>
         "Failed to pop arena allocation, more than currently allocated");

  // Should we zero out the memory?
  arena->next_offset = offset;
    1927:	mov    rax,QWORD PTR [rbp-0x8]
    192b:	mov    rdx,QWORD PTR [rbp-0x10]
    192f:	mov    QWORD PTR [rax+0x10],rdx
}
    1933:	nop
    1934:	leave
    1935:	ret

0000000000001936 <arena_pop>:

void arena_pop(Arena *arena, isize size)
{
    1936:	push   rbp
    1937:	mov    rbp,rsp
    193a:	sub    rsp,0x10
    193e:	mov    QWORD PTR [rbp-0x8],rdi
    1942:	mov    QWORD PTR [rbp-0x10],rsi
  arena_pop_to(arena, arena->next_offset - size);
    1946:	mov    rax,QWORD PTR [rbp-0x8]
    194a:	mov    rax,QWORD PTR [rax+0x10]
    194e:	sub    rax,QWORD PTR [rbp-0x10]
    1952:	mov    rdx,rax
    1955:	mov    rax,QWORD PTR [rbp-0x8]
    1959:	mov    rsi,rdx
    195c:	mov    rdi,rax
    195f:	call   18e4 <arena_pop_to>
}
    1964:	nop
    1965:	leave
    1966:	ret

0000000000001967 <arena_clear>:

void arena_clear(Arena *arena)
{
    1967:	push   rbp
    1968:	mov    rbp,rsp
    196b:	mov    QWORD PTR [rbp-0x8],rdi
  arena->next_offset = 0;
    196f:	mov    rax,QWORD PTR [rbp-0x8]
    1973:	mov    QWORD PTR [rax+0x10],0x0
}
    197b:	nop
    197c:	pop    rbp
    197d:	ret

000000000000197e <scratch_begin>:

Scratch scratch_begin(Arena *arena)
{
    197e:	push   rbp
    197f:	mov    rbp,rsp
    1982:	mov    QWORD PTR [rbp-0x18],rdi
  Scratch scratch = {.arena = arena, .offset_save = arena->next_offset};
    1986:	mov    rax,QWORD PTR [rbp-0x18]
    198a:	mov    QWORD PTR [rbp-0x10],rax
    198e:	mov    rax,QWORD PTR [rbp-0x18]
    1992:	mov    rax,QWORD PTR [rax+0x10]
    1996:	mov    QWORD PTR [rbp-0x8],rax
  return scratch;
    199a:	mov    rax,QWORD PTR [rbp-0x10]
    199e:	mov    rdx,QWORD PTR [rbp-0x8]
}
    19a2:	pop    rbp
    19a3:	ret

00000000000019a4 <scratch_end>:

void scratch_end(Scratch *scratch)
{
    19a4:	push   rbp
    19a5:	mov    rbp,rsp
    19a8:	sub    rsp,0x10
    19ac:	mov    QWORD PTR [rbp-0x8],rdi
  arena_pop_to(scratch->arena, scratch->offset_save);
    19b0:	mov    rax,QWORD PTR [rbp-0x8]
    19b4:	mov    rdx,QWORD PTR [rax+0x8]
    19b8:	mov    rax,QWORD PTR [rbp-0x8]
    19bc:	mov    rax,QWORD PTR [rax]
    19bf:	mov    rsi,rdx
    19c2:	mov    rdi,rax
    19c5:	call   18e4 <arena_pop_to>
  ZERO_STRUCT(scratch);
    19ca:	mov    rax,QWORD PTR [rbp-0x8]
    19ce:	mov    edx,0x10
    19d3:	mov    esi,0x0
    19d8:	mov    rdi,rax
    19db:	call   10a0 <memset@plt>
}
    19e0:	nop
    19e1:	leave
    19e2:	ret

00000000000019e3 <get_os_timer_freq>:
#include <sys/time.h>

// NOTE(ss): Will need to be defined per OS
static
u64 get_os_timer_freq(void)
{
    19e3:	push   rbp
    19e4:	mov    rbp,rsp
  // Posix gettimeofday is in microseconds
  return 1000000;
    19e7:	mov    eax,0xf4240
}
    19ec:	pop    rbp
    19ed:	ret

00000000000019ee <read_os_timer>:

// NOTE(ss): Will need to be defined per OS
static
u64 read_os_timer(void)
{
    19ee:	push   rbp
    19ef:	mov    rbp,rsp
    19f2:	sub    rsp,0x30
    19f6:	mov    rax,QWORD PTR fs:0x28
    19ff:	mov    QWORD PTR [rbp-0x8],rax
    1a03:	xor    eax,eax
  struct timeval value;
  gettimeofday(&value, 0);
    1a05:	lea    rax,[rbp-0x20]
    1a09:	mov    esi,0x0
    1a0e:	mov    rdi,rax
    1a11:	call   1080 <gettimeofday@plt>
  u64 result = get_os_timer_freq() * value.tv_sec + value.tv_usec;
    1a16:	call   19e3 <get_os_timer_freq>
    1a1b:	mov    rdx,QWORD PTR [rbp-0x20]
    1a1f:	imul   rax,rdx
    1a23:	mov    rdx,QWORD PTR [rbp-0x18]
    1a27:	add    rax,rdx
    1a2a:	mov    QWORD PTR [rbp-0x28],rax

  return result;
    1a2e:	mov    rax,QWORD PTR [rbp-0x28]
}
    1a32:	mov    rdx,QWORD PTR [rbp-0x8]
    1a36:	sub    rdx,QWORD PTR fs:0x28
    1a3f:	je     1a46 <read_os_timer+0x58>
    1a41:	call   1060 <__stack_chk_fail@plt>
    1a46:	leave
    1a47:	ret

0000000000001a48 <read_cpu_timer>:

// NOTE(ss): Will need to be defined per ISA
static
u64 read_cpu_timer(void)
{
    1a48:	push   rbp
    1a49:	mov    rbp,rsp
/* rdtsc */
extern __inline unsigned long long
__attribute__((__gnu_inline__, __always_inline__, __artificial__))
__rdtsc (void)
{
  return __builtin_ia32_rdtsc ();
    1a4c:	rdtsc
    1a4e:	shl    rdx,0x20
    1a52:	or     rax,rdx
  return __rdtsc();
}
    1a55:	pop    rbp
    1a56:	ret

0000000000001a57 <estimate_cpu_freq>:

// Just an estimation, in microseconds
static
u64 estimate_cpu_freq(void)
{
    1a57:	push   rbp
    1a58:	mov    rbp,rsp
    1a5b:	sub    rsp,0x50
  u64 wait_milliseconds = 100;
    1a5f:	mov    QWORD PTR [rbp-0x48],0x64
  u64 os_frequency = get_os_timer_freq();
    1a67:	call   19e3 <get_os_timer_freq>
    1a6c:	mov    QWORD PTR [rbp-0x40],rax

  u64 cpu_start = read_cpu_timer();
    1a70:	call   1a48 <read_cpu_timer>
    1a75:	mov    QWORD PTR [rbp-0x38],rax
  u64 os_start  = read_os_timer();
    1a79:	call   19ee <read_os_timer>
    1a7e:	mov    QWORD PTR [rbp-0x30],rax

  u64 os_end   = 0;
    1a82:	mov    QWORD PTR [rbp-0x28],0x0
  u64 os_delta = 0;
    1a8a:	mov    QWORD PTR [rbp-0x50],0x0

  // In microseconds
  u64 os_wait_time = (os_frequency * wait_milliseconds) / 1000;
    1a92:	mov    rax,QWORD PTR [rbp-0x40]
    1a96:	imul   rax,QWORD PTR [rbp-0x48]
    1a9b:	shr    rax,0x3
    1a9f:	movabs rdx,0x20c49ba5e353f7cf
    1aa9:	mul    rdx
    1aac:	mov    rax,rdx
    1aaf:	shr    rax,0x4
    1ab3:	mov    QWORD PTR [rbp-0x20],rax
  while (os_delta < os_wait_time)
    1ab7:	jmp    1ace <estimate_cpu_freq+0x77>
  {
    os_end   = read_os_timer();
    1ab9:	call   19ee <read_os_timer>
    1abe:	mov    QWORD PTR [rbp-0x28],rax
    os_delta = os_end - os_start;
    1ac2:	mov    rax,QWORD PTR [rbp-0x28]
    1ac6:	sub    rax,QWORD PTR [rbp-0x30]
    1aca:	mov    QWORD PTR [rbp-0x50],rax
  while (os_delta < os_wait_time)
    1ace:	mov    rax,QWORD PTR [rbp-0x50]
    1ad2:	cmp    rax,QWORD PTR [rbp-0x20]
    1ad6:	jb     1ab9 <estimate_cpu_freq+0x62>
  }

  u64 cpu_end   = read_cpu_timer();
    1ad8:	call   1a48 <read_cpu_timer>
    1add:	mov    QWORD PTR [rbp-0x18],rax
  u64 cpu_delta = cpu_end - cpu_start;
    1ae1:	mov    rax,QWORD PTR [rbp-0x18]
    1ae5:	sub    rax,QWORD PTR [rbp-0x38]
    1ae9:	mov    QWORD PTR [rbp-0x10],rax

  u64 cpu_frequency = 0;
    1aed:	mov    QWORD PTR [rbp-0x8],0x0

  assert(os_delta != 0 && "OS Time delta for cpu frequency estimation was somehow 0!");
    1af5:	cmp    QWORD PTR [rbp-0x50],0x0
    1afa:	jne    1b21 <estimate_cpu_freq+0xca>
    1afc:	lea    rdx,[rip+0x2ccd]        # 47d0 <__PRETTY_FUNCTION__.6>
    1b03:	lea    rsi,[rip+0x2725]        # 422f <_IO_stdin_used+0x22f>
    1b0a:	lea    rax,[rip+0x272f]        # 4240 <_IO_stdin_used+0x240>
    1b11:	mov    rcx,rdx
    1b14:	mov    edx,0x3b
    1b19:	mov    rdi,rax
    1b1c:	call   1090 <__assert_fail@plt>

  // CPU time in OS ticks, divide by OS delta gives estimate of cpu frequency
  cpu_frequency = os_frequency * cpu_delta / os_delta;
    1b21:	mov    rax,QWORD PTR [rbp-0x40]
    1b25:	imul   rax,QWORD PTR [rbp-0x10]
    1b2a:	mov    edx,0x0
    1b2f:	div    QWORD PTR [rbp-0x50]
    1b33:	mov    QWORD PTR [rbp-0x8],rax

  return cpu_frequency;
    1b37:	mov    rax,QWORD PTR [rbp-0x8]
}
    1b3b:	leave
    1b3c:	ret

0000000000001b3d <begin_profiling>:

static Profiler g_profiler;

static
void begin_profiling()
{
    1b3d:	push   rbp
    1b3e:	mov    rbp,rsp
    1b41:	push   rbx
    1b42:	sub    rsp,0x30028
    1b49:	mov    rax,QWORD PTR fs:0x28
    1b52:	mov    QWORD PTR [rbp-0x18],rax
    1b56:	xor    eax,eax
  g_profiler = (Profiler)
  {
    .start = read_cpu_timer(),
    1b58:	call   1a48 <read_cpu_timer>
    1b5d:	mov    rbx,rax
  g_profiler = (Profiler)
    1b60:	lea    rax,[rip+0x4639]        # 61a0 <g_profiler>
    1b67:	mov    edx,0x30010
    1b6c:	mov    esi,0x0
    1b71:	mov    rdi,rax
    1b74:	call   10a0 <memset@plt>
    1b79:	mov    QWORD PTR [rip+0x4620],rbx        # 61a0 <g_profiler>
  };
}
    1b80:	nop
    1b81:	mov    rax,QWORD PTR [rbp-0x18]
    1b85:	sub    rax,QWORD PTR fs:0x28
    1b8e:	je     1b95 <begin_profiling+0x58>
    1b90:	call   1060 <__stack_chk_fail@plt>
    1b95:	mov    rbx,QWORD PTR [rbp-0x8]
    1b99:	leave
    1b9a:	ret

0000000000001b9b <end_profiling>:

static
void end_profiling()
{
    1b9b:	push   rbp
    1b9c:	mov    rbp,rsp
    1b9f:	sub    rsp,0x40
  u64 total_delta = read_cpu_timer() - g_profiler.start;
    1ba3:	call   1a48 <read_cpu_timer>
    1ba8:	mov    rdx,rax
    1bab:	mov    rax,QWORD PTR [rip+0x45ee]        # 61a0 <g_profiler>
    1bb2:	sub    rdx,rax
    1bb5:	mov    QWORD PTR [rbp-0x28],rdx

  if (total_delta)
    1bb9:	cmp    QWORD PTR [rbp-0x28],0x0
    1bbe:	je     1e44 <end_profiling+0x2a9>
  {
    u64 freq = estimate_cpu_freq();
    1bc4:	call   1a57 <estimate_cpu_freq>
    1bc9:	mov    QWORD PTR [rbp-0x20],rax
    printf("[PROFILE] Total duration: %lu (%fms @ CPU Frequency: %u)\n", total_delta, (f64)total_delta / (f64)freq * 1000.0, freq);
    1bcd:	mov    rax,QWORD PTR [rbp-0x28]
    1bd1:	test   rax,rax
    1bd4:	js     1be1 <end_profiling+0x46>
    1bd6:	pxor   xmm0,xmm0
    1bda:	cvtsi2sd xmm0,rax
    1bdf:	jmp    1bfa <end_profiling+0x5f>
    1be1:	mov    rdx,rax
    1be4:	shr    rdx,1
    1be7:	and    eax,0x1
    1bea:	or     rdx,rax
    1bed:	pxor   xmm0,xmm0
    1bf1:	cvtsi2sd xmm0,rdx
    1bf6:	addsd  xmm0,xmm0
    1bfa:	mov    rax,QWORD PTR [rbp-0x20]
    1bfe:	test   rax,rax
    1c01:	js     1c0e <end_profiling+0x73>
    1c03:	pxor   xmm1,xmm1
    1c07:	cvtsi2sd xmm1,rax
    1c0c:	jmp    1c27 <end_profiling+0x8c>
    1c0e:	mov    rdx,rax
    1c11:	shr    rdx,1
    1c14:	and    eax,0x1
    1c17:	or     rdx,rax
    1c1a:	pxor   xmm1,xmm1
    1c1e:	cvtsi2sd xmm1,rdx
    1c23:	addsd  xmm1,xmm1
    1c27:	movapd xmm2,xmm0
    1c2b:	divsd  xmm2,xmm1
    1c2f:	movsd  xmm0,QWORD PTR [rip+0x2c51]        # 4888 <__PRETTY_FUNCTION__.0+0x18>
    1c37:	mulsd  xmm2,xmm0
    1c3b:	movq   rcx,xmm2
    1c40:	mov    rdx,QWORD PTR [rbp-0x20]
    1c44:	mov    rax,QWORD PTR [rbp-0x28]
    1c48:	lea    rdi,[rip+0x2641]        # 4290 <_IO_stdin_used+0x290>
    1c4f:	movq   xmm0,rcx
    1c54:	mov    rsi,rax
    1c57:	mov    eax,0x1
    1c5c:	call   1070 <printf@plt>

    f64 exclusive_percent = 0.0;
    1c61:	pxor   xmm0,xmm0
    1c65:	movsd  QWORD PTR [rbp-0x38],xmm0

    for (usize i = 0; i < STATIC_ARRAY_COUNT(g_profiler.zones); i++)
    1c6a:	mov    QWORD PTR [rbp-0x30],0x0
    1c72:	jmp    1e36 <end_profiling+0x29b>
    {
      Profile_Zone *zone = &g_profiler.zones[i];
    1c77:	mov    rdx,QWORD PTR [rbp-0x30]
    1c7b:	mov    rax,rdx
    1c7e:	add    rax,rax
    1c81:	add    rax,rdx
    1c84:	shl    rax,0x4
    1c88:	lea    rdx,[rax+0x10]
    1c8c:	lea    rax,[rip+0x450d]        # 61a0 <g_profiler>
    1c93:	add    rax,rdx
    1c96:	mov    QWORD PTR [rbp-0x18],rax

      if (zone->elapsed_inclusive)
    1c9a:	mov    rax,QWORD PTR [rbp-0x18]
    1c9e:	mov    rax,QWORD PTR [rax+0x18]
    1ca2:	test   rax,rax
    1ca5:	je     1e31 <end_profiling+0x296>
      {
        f64 percent = ((f64)zone->elapsed_exclusive / (f64)total_delta) * 100.0;
    1cab:	mov    rax,QWORD PTR [rbp-0x18]
    1caf:	mov    rax,QWORD PTR [rax+0x10]
    1cb3:	test   rax,rax
    1cb6:	js     1cc3 <end_profiling+0x128>
    1cb8:	pxor   xmm0,xmm0
    1cbc:	cvtsi2sd xmm0,rax
    1cc1:	jmp    1cdc <end_profiling+0x141>
    1cc3:	mov    rdx,rax
    1cc6:	shr    rdx,1
    1cc9:	and    eax,0x1
    1ccc:	or     rdx,rax
    1ccf:	pxor   xmm0,xmm0
    1cd3:	cvtsi2sd xmm0,rdx
    1cd8:	addsd  xmm0,xmm0
    1cdc:	mov    rax,QWORD PTR [rbp-0x28]
    1ce0:	test   rax,rax
    1ce3:	js     1cf0 <end_profiling+0x155>
    1ce5:	pxor   xmm1,xmm1
    1ce9:	cvtsi2sd xmm1,rax
    1cee:	jmp    1d09 <end_profiling+0x16e>
    1cf0:	mov    rdx,rax
    1cf3:	shr    rdx,1
    1cf6:	and    eax,0x1
    1cf9:	or     rdx,rax
    1cfc:	pxor   xmm1,xmm1
    1d00:	cvtsi2sd xmm1,rdx
    1d05:	addsd  xmm1,xmm1
    1d09:	movapd xmm2,xmm0
    1d0d:	divsd  xmm2,xmm1
    1d11:	movsd  xmm0,QWORD PTR [rip+0x2b77]        # 4890 <__PRETTY_FUNCTION__.0+0x20>
    1d19:	mulsd  xmm0,xmm2
    1d1d:	movsd  QWORD PTR [rbp-0x10],xmm0

        printf("[PROFILE] Zone '%.*s':\n"
    1d22:	mov    rax,QWORD PTR [rbp-0x18]
    1d26:	mov    rsi,QWORD PTR [rax+0x10]
    1d2a:	mov    rax,QWORD PTR [rbp-0x18]
    1d2e:	mov    rdx,QWORD PTR [rax+0x20]
    1d32:	mov    rax,QWORD PTR [rbp-0x18]
    1d36:	mov    rax,QWORD PTR [rax]
               "  Hit Count: %lu\n"
               "  Exclusive Timestamp Cycles: %lu (%.4f%%)\n"
               , String_Format(zone->name), zone->hit_count, zone->elapsed_exclusive, percent);
    1d39:	mov    rcx,QWORD PTR [rbp-0x18]
    1d3d:	mov    rcx,QWORD PTR [rcx+0x8]
        printf("[PROFILE] Zone '%.*s':\n"
    1d41:	mov    r9d,ecx
    1d44:	mov    rcx,QWORD PTR [rbp-0x10]
    1d48:	lea    rdi,[rip+0x2581]        # 42d0 <_IO_stdin_used+0x2d0>
    1d4f:	movq   xmm0,rcx
    1d54:	mov    r8,rsi
    1d57:	mov    rcx,rdx
    1d5a:	mov    rdx,rax
    1d5d:	mov    esi,r9d
    1d60:	mov    eax,0x1
    1d65:	call   1070 <printf@plt>
        if (zone->elapsed_exclusive != zone->elapsed_inclusive)
    1d6a:	mov    rax,QWORD PTR [rbp-0x18]
    1d6e:	mov    rdx,QWORD PTR [rax+0x10]
    1d72:	mov    rax,QWORD PTR [rbp-0x18]
    1d76:	mov    rax,QWORD PTR [rax+0x18]
    1d7a:	cmp    rdx,rax
    1d7d:	je     1e22 <end_profiling+0x287>
        {
          f64 with_children_percent = ((f64)zone->elapsed_inclusive / (f64)total_delta) * 100.0;
    1d83:	mov    rax,QWORD PTR [rbp-0x18]
    1d87:	mov    rax,QWORD PTR [rax+0x18]
    1d8b:	test   rax,rax
    1d8e:	js     1d9b <end_profiling+0x200>
    1d90:	pxor   xmm0,xmm0
    1d94:	cvtsi2sd xmm0,rax
    1d99:	jmp    1db4 <end_profiling+0x219>
    1d9b:	mov    rdx,rax
    1d9e:	shr    rdx,1
    1da1:	and    eax,0x1
    1da4:	or     rdx,rax
    1da7:	pxor   xmm0,xmm0
    1dab:	cvtsi2sd xmm0,rdx
    1db0:	addsd  xmm0,xmm0
    1db4:	mov    rax,QWORD PTR [rbp-0x28]
    1db8:	test   rax,rax
    1dbb:	js     1dc8 <end_profiling+0x22d>
    1dbd:	pxor   xmm1,xmm1
    1dc1:	cvtsi2sd xmm1,rax
    1dc6:	jmp    1de1 <end_profiling+0x246>
    1dc8:	mov    rdx,rax
    1dcb:	shr    rdx,1
    1dce:	and    eax,0x1
    1dd1:	or     rdx,rax
    1dd4:	pxor   xmm1,xmm1
    1dd8:	cvtsi2sd xmm1,rdx
    1ddd:	addsd  xmm1,xmm1
    1de1:	movapd xmm2,xmm0
    1de5:	divsd  xmm2,xmm1
    1de9:	movsd  xmm0,QWORD PTR [rip+0x2a9f]        # 4890 <__PRETTY_FUNCTION__.0+0x20>
    1df1:	mulsd  xmm0,xmm2
    1df5:	movsd  QWORD PTR [rbp-0x8],xmm0
          printf("  Inclusive Timestamp Cycles: %lu (%.4f%%)\n", zone->elapsed_inclusive, with_children_percent);
    1dfa:	mov    rax,QWORD PTR [rbp-0x18]
    1dfe:	mov    rax,QWORD PTR [rax+0x18]
    1e02:	mov    rdx,QWORD PTR [rbp-0x8]
    1e06:	lea    rcx,[rip+0x251b]        # 4328 <_IO_stdin_used+0x328>
    1e0d:	movq   xmm0,rdx
    1e12:	mov    rsi,rax
    1e15:	mov    rdi,rcx
    1e18:	mov    eax,0x1
    1e1d:	call   1070 <printf@plt>
        }

        exclusive_percent += percent;
    1e22:	movsd  xmm0,QWORD PTR [rbp-0x38]
    1e27:	addsd  xmm0,QWORD PTR [rbp-0x10]
    1e2c:	movsd  QWORD PTR [rbp-0x38],xmm0
    for (usize i = 0; i < STATIC_ARRAY_COUNT(g_profiler.zones); i++)
    1e31:	add    QWORD PTR [rbp-0x30],0x1
    1e36:	cmp    QWORD PTR [rbp-0x30],0xfff
    1e3e:	jbe    1c77 <end_profiling+0xdc>
      }
    }

  }
}
    1e44:	nop
    1e45:	leave
    1e46:	ret

0000000000001e47 <__profile_begin_pass>:

static
Profile_Pass __profile_begin_pass(String name, usize zone_index, u64 bytes_processed)
{
    1e47:	push   rbp
    1e48:	mov    rbp,rsp
    1e4b:	push   rbx
    1e4c:	sub    rsp,0x78
    1e50:	mov    QWORD PTR [rbp-0x58],rdi
    1e54:	mov    rax,rsi
    1e57:	mov    rsi,rdx
    1e5a:	mov    rax,rax
    1e5d:	mov    edx,0x0
    1e62:	mov    rdx,rsi
    1e65:	mov    QWORD PTR [rbp-0x70],rax
    1e69:	mov    QWORD PTR [rbp-0x68],rdx
    1e6d:	mov    QWORD PTR [rbp-0x60],rcx
    1e71:	mov    QWORD PTR [rbp-0x78],r8
  Profile_Pass pass =
    1e75:	pxor   xmm0,xmm0
    1e79:	movaps XMMWORD PTR [rbp-0x50],xmm0
    1e7d:	movaps XMMWORD PTR [rbp-0x40],xmm0
    1e81:	movaps XMMWORD PTR [rbp-0x30],xmm0
    1e85:	movq   QWORD PTR [rbp-0x20],xmm0
    1e8a:	mov    rax,QWORD PTR [rbp-0x70]
    1e8e:	mov    rdx,QWORD PTR [rbp-0x68]
    1e92:	mov    QWORD PTR [rbp-0x50],rax
    1e96:	mov    QWORD PTR [rbp-0x48],rdx
  {
    .parent_index = g_profiler.current_parent_zone,
    .name         = name,
    .zone_index   = zone_index,
    .old_elapsed_inclusive = g_profiler.zones[zone_index].elapsed_inclusive, // Save the original so it get overwritten in the case of children
    1e9a:	mov    rdx,QWORD PTR [rbp-0x60]
    1e9e:	mov    rax,rdx
    1ea1:	add    rax,rax
    1ea4:	add    rax,rdx
    1ea7:	shl    rax,0x4
    1eab:	mov    rdx,rax
    1eae:	lea    rax,[rip+0x4313]        # 61c8 <g_profiler+0x28>
    1eb5:	mov    rax,QWORD PTR [rdx+rax*1]
  Profile_Pass pass =
    1eb9:	mov    QWORD PTR [rbp-0x38],rax
    1ebd:	mov    rax,QWORD PTR [rbp-0x60]
    1ec1:	mov    QWORD PTR [rbp-0x30],rax
    .parent_index = g_profiler.current_parent_zone,
    1ec5:	mov    rax,QWORD PTR [rip+0x42dc]        # 61a8 <g_profiler+0x8>
  Profile_Pass pass =
    1ecc:	mov    QWORD PTR [rbp-0x28],rax
    1ed0:	mov    rax,QWORD PTR [rbp-0x78]
    1ed4:	mov    QWORD PTR [rbp-0x20],rax
    .bytes_processed = bytes_processed,
  };

  // Push parent
  g_profiler.current_parent_zone = zone_index;
    1ed8:	mov    rax,QWORD PTR [rbp-0x60]
    1edc:	mov    QWORD PTR [rip+0x42c5],rax        # 61a8 <g_profiler+0x8>

  // Last!
  pass.start = read_cpu_timer();
    1ee3:	call   1a48 <read_cpu_timer>
    1ee8:	mov    QWORD PTR [rbp-0x40],rax

  return pass;
    1eec:	mov    rax,QWORD PTR [rbp-0x58]
    1ef0:	mov    rcx,QWORD PTR [rbp-0x50]
    1ef4:	mov    rbx,QWORD PTR [rbp-0x48]
    1ef8:	mov    QWORD PTR [rax],rcx
    1efb:	mov    QWORD PTR [rax+0x8],rbx
    1eff:	mov    rcx,QWORD PTR [rbp-0x40]
    1f03:	mov    rbx,QWORD PTR [rbp-0x38]
    1f07:	mov    QWORD PTR [rax+0x10],rcx
    1f0b:	mov    QWORD PTR [rax+0x18],rbx
    1f0f:	mov    rcx,QWORD PTR [rbp-0x30]
    1f13:	mov    rbx,QWORD PTR [rbp-0x28]
    1f17:	mov    QWORD PTR [rax+0x20],rcx
    1f1b:	mov    QWORD PTR [rax+0x28],rbx
    1f1f:	mov    rdx,QWORD PTR [rbp-0x20]
    1f23:	mov    QWORD PTR [rax+0x30],rdx
}
    1f27:	mov    rax,QWORD PTR [rbp-0x58]
    1f2b:	mov    rbx,QWORD PTR [rbp-0x8]
    1f2f:	leave
    1f30:	ret

0000000000001f31 <__profile_end_pass>:

static
void __profile_end_pass(Profile_Pass pass)
{
    1f31:	push   rbp
    1f32:	mov    rbp,rsp
    1f35:	sub    rsp,0x20
  // First!
  u64 elapsed = read_cpu_timer() - pass.start;
    1f39:	call   1a48 <read_cpu_timer>
    1f3e:	mov    rdx,rax
    1f41:	mov    rax,QWORD PTR [rbp+0x20]
    1f45:	sub    rdx,rax
    1f48:	mov    QWORD PTR [rbp-0x18],rdx

  // Pop parent
  g_profiler.current_parent_zone = pass.parent_index;
    1f4c:	mov    rax,QWORD PTR [rbp+0x38]
    1f50:	mov    QWORD PTR [rip+0x4251],rax        # 61a8 <g_profiler+0x8>

  Profile_Zone *current = &g_profiler.zones[pass.zone_index];
    1f57:	mov    rdx,QWORD PTR [rbp+0x30]
    1f5b:	mov    rax,rdx
    1f5e:	add    rax,rax
    1f61:	add    rax,rdx
    1f64:	shl    rax,0x4
    1f68:	lea    rdx,[rax+0x10]
    1f6c:	lea    rax,[rip+0x422d]        # 61a0 <g_profiler>
    1f73:	add    rax,rdx
    1f76:	mov    QWORD PTR [rbp-0x10],rax
  current->elapsed_exclusive += elapsed;
    1f7a:	mov    rax,QWORD PTR [rbp-0x10]
    1f7e:	mov    rdx,QWORD PTR [rax+0x10]
    1f82:	mov    rax,QWORD PTR [rbp-0x18]
    1f86:	add    rdx,rax
    1f89:	mov    rax,QWORD PTR [rbp-0x10]
    1f8d:	mov    QWORD PTR [rax+0x10],rdx
  current->hit_count += 1;
    1f91:	mov    rax,QWORD PTR [rbp-0x10]
    1f95:	mov    rax,QWORD PTR [rax+0x20]
    1f99:	lea    rdx,[rax+0x1]
    1f9d:	mov    rax,QWORD PTR [rbp-0x10]
    1fa1:	mov    QWORD PTR [rax+0x20],rdx
  current->name = pass.name; // Stupid...
    1fa5:	mov    rcx,QWORD PTR [rbp-0x10]
    1fa9:	mov    rax,QWORD PTR [rbp+0x10]
    1fad:	mov    rdx,QWORD PTR [rbp+0x18]
    1fb1:	mov    QWORD PTR [rcx],rax
    1fb4:	mov    QWORD PTR [rcx+0x8],rdx
  current->elapsed_inclusive = pass.old_elapsed_inclusive + elapsed; // So that only the final out of potential recursive calls writes inclusive time
    1fb8:	mov    rdx,QWORD PTR [rbp+0x28]
    1fbc:	mov    rax,QWORD PTR [rbp-0x18]
    1fc0:	add    rdx,rax
    1fc3:	mov    rax,QWORD PTR [rbp-0x10]
    1fc7:	mov    QWORD PTR [rax+0x18],rdx
  current->bytes_processed += pass.bytes_processed;
    1fcb:	mov    rax,QWORD PTR [rbp-0x10]
    1fcf:	mov    rdx,QWORD PTR [rax+0x28]
    1fd3:	mov    rax,QWORD PTR [rbp+0x40]
    1fd7:	add    rdx,rax
    1fda:	mov    rax,QWORD PTR [rbp-0x10]
    1fde:	mov    QWORD PTR [rax+0x28],rdx

  // Accumulate to parent time
  Profile_Zone *parent = &g_profiler.zones[pass.parent_index];
    1fe2:	mov    rdx,QWORD PTR [rbp+0x38]
    1fe6:	mov    rax,rdx
    1fe9:	add    rax,rax
    1fec:	add    rax,rdx
    1fef:	shl    rax,0x4
    1ff3:	lea    rdx,[rax+0x10]
    1ff7:	lea    rax,[rip+0x41a2]        # 61a0 <g_profiler>
    1ffe:	add    rax,rdx
    2001:	mov    QWORD PTR [rbp-0x8],rax
  parent->elapsed_exclusive -= elapsed;
    2005:	mov    rax,QWORD PTR [rbp-0x8]
    2009:	mov    rax,QWORD PTR [rax+0x10]
    200d:	sub    rax,QWORD PTR [rbp-0x18]
    2011:	mov    rdx,rax
    2014:	mov    rax,QWORD PTR [rbp-0x8]
    2018:	mov    QWORD PTR [rax+0x10],rdx
}
    201c:	nop
    201d:	leave
    201e:	ret

000000000000201f <parser_at>:
  usize  at;
};

static
u8 *parser_at(JSON_Parser *parser)
{
    201f:	push   rbp
    2020:	mov    rbp,rsp
    2023:	sub    rsp,0x10
    2027:	mov    QWORD PTR [rbp-0x8],rdi
  ASSERT(parser->at < parser->source.count, "Attempted to read past parser source");
    202b:	mov    rax,QWORD PTR [rbp-0x8]
    202f:	mov    rdx,QWORD PTR [rax+0x10]
    2033:	mov    rax,QWORD PTR [rbp-0x8]
    2037:	mov    rax,QWORD PTR [rax+0x8]
    203b:	cmp    rdx,rax
    203e:	jb     2065 <parser_at+0x46>
    2040:	lea    rdx,[rip+0x27a1]        # 47e8 <__PRETTY_FUNCTION__.5>
    2047:	lea    rsi,[rip+0x2411]        # 445f <_IO_stdin_used+0x45f>
    204e:	lea    rax,[rip+0x241b]        # 4470 <_IO_stdin_used+0x470>
    2055:	mov    rcx,rdx
    2058:	mov    edx,0x2f
    205d:	mov    rdi,rax
    2060:	call   1090 <__assert_fail@plt>
  return parser->source.data + parser->at;
    2065:	mov    rax,QWORD PTR [rbp-0x8]
    2069:	mov    rdx,QWORD PTR [rax]
    206c:	mov    rax,QWORD PTR [rbp-0x8]
    2070:	mov    rax,QWORD PTR [rax+0x10]
    2074:	add    rax,rdx
}
    2077:	leave
    2078:	ret

0000000000002079 <parser_peek>:

// TODO: Use this to peek so don't have to always advance one at a time
static
u8 *parser_peek(JSON_Parser *parser, usize advance)
{
    2079:	push   rbp
    207a:	mov    rbp,rsp
    207d:	sub    rsp,0x10
    2081:	mov    QWORD PTR [rbp-0x8],rdi
    2085:	mov    QWORD PTR [rbp-0x10],rsi
  return parser_at(parser) + advance;
    2089:	mov    rax,QWORD PTR [rbp-0x8]
    208d:	mov    rdi,rax
    2090:	call   201f <parser_at>
    2095:	mov    rdx,QWORD PTR [rbp-0x10]
    2099:	add    rax,rdx
}
    209c:	leave
    209d:	ret

000000000000209e <parser_advance>:

static
void parser_advance(JSON_Parser *parser, usize advance)
{
    209e:	push   rbp
    209f:	mov    rbp,rsp
    20a2:	mov    QWORD PTR [rbp-0x8],rdi
    20a6:	mov    QWORD PTR [rbp-0x10],rsi
  parser->at += advance;
    20aa:	mov    rax,QWORD PTR [rbp-0x8]
    20ae:	mov    rdx,QWORD PTR [rax+0x10]
    20b2:	mov    rax,QWORD PTR [rbp-0x10]
    20b6:	add    rdx,rax
    20b9:	mov    rax,QWORD PTR [rbp-0x8]
    20bd:	mov    QWORD PTR [rax+0x10],rdx
}
    20c1:	nop
    20c2:	pop    rbp
    20c3:	ret

00000000000020c4 <parser_incomplete>:

static
b8 parser_incomplete(JSON_Parser *parser)
{
    20c4:	push   rbp
    20c5:	mov    rbp,rsp
    20c8:	mov    QWORD PTR [rbp-0x8],rdi
  return parser->at < parser->source.count;
    20cc:	mov    rax,QWORD PTR [rbp-0x8]
    20d0:	mov    rdx,QWORD PTR [rax+0x10]
    20d4:	mov    rax,QWORD PTR [rbp-0x8]
    20d8:	mov    rax,QWORD PTR [rax+0x8]
    20dc:	cmp    rdx,rax
    20df:	setb   al
}
    20e2:	pop    rbp
    20e3:	ret

00000000000020e4 <parser_token_is_literal>:

static
b8 parser_token_is_literal(JSON_Parser *parser, String literal_string)
{
    20e4:	push   rbp
    20e5:	mov    rbp,rsp
    20e8:	push   r12
    20ea:	push   rbx
    20eb:	sub    rsp,0x20
    20ef:	mov    QWORD PTR [rbp-0x18],rdi
    20f3:	mov    rax,rsi
    20f6:	mov    rcx,rdx
    20f9:	mov    rax,rax
    20fc:	mov    edx,0x0
    2101:	mov    rdx,rcx
    2104:	mov    QWORD PTR [rbp-0x30],rax
    2108:	mov    QWORD PTR [rbp-0x28],rdx

  return memcmp(parser_at(parser), literal_string.data, literal_string.count) == 0;
    210c:	mov    rax,QWORD PTR [rbp-0x28]
    2110:	mov    r12,rax
    2113:	mov    rbx,QWORD PTR [rbp-0x30]
    2117:	mov    rax,QWORD PTR [rbp-0x18]
    211b:	mov    rdi,rax
    211e:	call   201f <parser_at>
    2123:	mov    rdx,r12
    2126:	mov    rsi,rbx
    2129:	mov    rdi,rax
    212c:	call   10d0 <memcmp@plt>
    2131:	test   eax,eax
    2133:	sete   al
}
    2136:	add    rsp,0x20
    213a:	pop    rbx
    213b:	pop    r12
    213d:	pop    rbp
    213e:	ret

000000000000213f <is_numeric>:

static
b8 is_numeric(u8 ch)
{
    213f:	push   rbp
    2140:	mov    rbp,rsp
    2143:	mov    eax,edi
    2145:	mov    BYTE PTR [rbp-0x14],al
  b8 result = false;
    2148:	mov    BYTE PTR [rbp-0x1],0x0

  switch (ch)
    214c:	movzx  eax,BYTE PTR [rbp-0x14]
    2150:	cmp    eax,0x2e
    2153:	jg     215c <is_numeric+0x1d>
    2155:	cmp    eax,0x2d
    2158:	jge    2164 <is_numeric+0x25>
    215a:	jmp    2169 <is_numeric+0x2a>
    215c:	sub    eax,0x30
    215f:	cmp    eax,0x9
    2162:	ja     2169 <is_numeric+0x2a>
    case '8':
    case '9':
    case '.':
    case '-':
    {
      result = true;
    2164:	mov    BYTE PTR [rbp-0x1],0x1
    }
    break;
    2168:	nop
  }


  return result;
    2169:	movzx  eax,BYTE PTR [rbp-0x1]
}
    216d:	pop    rbp
    216e:	ret

000000000000216f <get_json_token>:

JSON_Token get_json_token(JSON_Parser *parser)
{
    216f:	push   rbp
    2170:	mov    rbp,rsp
    2173:	sub    rsp,0x50
    2177:	mov    QWORD PTR [rbp-0x48],rdi
    217b:	mov    QWORD PTR [rbp-0x50],rsi
  JSON_Token token = {0};
    217f:	pxor   xmm0,xmm0
    2183:	movaps XMMWORD PTR [rbp-0x20],xmm0
    2187:	movq   QWORD PTR [rbp-0x10],xmm0

  // Eat white spaces
  while (parser_incomplete(parser)  &&
    218c:	jmp    219f <get_json_token+0x30>
          *parser_at(parser) == '\n' ||
          *parser_at(parser) == '\r' ||
          *parser_at(parser) == '\t'))
  {
    // TODO: Probably just count all white space and then advance once for all at the end
    parser_advance(parser, 1);
    218e:	mov    rax,QWORD PTR [rbp-0x50]
    2192:	mov    esi,0x1
    2197:	mov    rdi,rax
    219a:	call   209e <parser_advance>
  while (parser_incomplete(parser)  &&
    219f:	mov    rax,QWORD PTR [rbp-0x50]
    21a3:	mov    rdi,rax
    21a6:	call   20c4 <parser_incomplete>
    21ab:	test   al,al
    21ad:	je     21fb <get_json_token+0x8c>
         (*parser_at(parser) == ' '  ||
    21af:	mov    rax,QWORD PTR [rbp-0x50]
    21b3:	mov    rdi,rax
    21b6:	call   201f <parser_at>
    21bb:	movzx  eax,BYTE PTR [rax]
  while (parser_incomplete(parser)  &&
    21be:	cmp    al,0x20
    21c0:	je     218e <get_json_token+0x1f>
          *parser_at(parser) == '\n' ||
    21c2:	mov    rax,QWORD PTR [rbp-0x50]
    21c6:	mov    rdi,rax
    21c9:	call   201f <parser_at>
    21ce:	movzx  eax,BYTE PTR [rax]
         (*parser_at(parser) == ' '  ||
    21d1:	cmp    al,0xa
    21d3:	je     218e <get_json_token+0x1f>
          *parser_at(parser) == '\r' ||
    21d5:	mov    rax,QWORD PTR [rbp-0x50]
    21d9:	mov    rdi,rax
    21dc:	call   201f <parser_at>
    21e1:	movzx  eax,BYTE PTR [rax]
          *parser_at(parser) == '\n' ||
    21e4:	cmp    al,0xd
    21e6:	je     218e <get_json_token+0x1f>
          *parser_at(parser) == '\t'))
    21e8:	mov    rax,QWORD PTR [rbp-0x50]
    21ec:	mov    rdi,rax
    21ef:	call   201f <parser_at>
    21f4:	movzx  eax,BYTE PTR [rax]
          *parser_at(parser) == '\r' ||
    21f7:	cmp    al,0x9
    21f9:	je     218e <get_json_token+0x1f>
  }

  if (parser_incomplete(parser)) // If we've not reached the end of file
    21fb:	mov    rax,QWORD PTR [rbp-0x50]
    21ff:	mov    rdi,rax
    2202:	call   20c4 <parser_incomplete>
    2207:	test   al,al
    2209:	je     2636 <get_json_token+0x4c7>
  {
    token.value.data = parser_at(parser);
    220f:	mov    rax,QWORD PTR [rbp-0x50]
    2213:	mov    rdi,rax
    2216:	call   201f <parser_at>
    221b:	mov    QWORD PTR [rbp-0x18],rax
    switch (*parser_at(parser))
    221f:	mov    rax,QWORD PTR [rbp-0x50]
    2223:	mov    rdi,rax
    2226:	call   201f <parser_at>
    222b:	movzx  eax,BYTE PTR [rax]
    222e:	movzx  eax,al
    2231:	cmp    eax,0x7d
    2234:	je     2321 <get_json_token+0x1b2>
    223a:	cmp    eax,0x7d
    223d:	jg     2647 <get_json_token+0x4d8>
    2243:	cmp    eax,0x7b
    2246:	je     22fc <get_json_token+0x18d>
    224c:	cmp    eax,0x7b
    224f:	jg     2647 <get_json_token+0x4d8>
    2255:	cmp    eax,0x74
    2258:	je     24a4 <get_json_token+0x335>
    225e:	cmp    eax,0x74
    2261:	jg     2647 <get_json_token+0x4d8>
    2267:	cmp    eax,0x6e
    226a:	je     25b4 <get_json_token+0x445>
    2270:	cmp    eax,0x6e
    2273:	jg     2647 <get_json_token+0x4d8>
    2279:	cmp    eax,0x66
    227c:	je     252c <get_json_token+0x3bd>
    2282:	cmp    eax,0x66
    2285:	jg     2647 <get_json_token+0x4d8>
    228b:	cmp    eax,0x5d
    228e:	je     236b <get_json_token+0x1fc>
    2294:	cmp    eax,0x5d
    2297:	jg     2647 <get_json_token+0x4d8>
    229d:	cmp    eax,0x5b
    22a0:	je     2346 <get_json_token+0x1d7>
    22a6:	cmp    eax,0x5b
    22a9:	jg     2647 <get_json_token+0x4d8>
    22af:	cmp    eax,0x3a
    22b2:	je     23b5 <get_json_token+0x246>
    22b8:	cmp    eax,0x3a
    22bb:	jg     2647 <get_json_token+0x4d8>
    22c1:	cmp    eax,0x39
    22c4:	jg     2647 <get_json_token+0x4d8>
    22ca:	cmp    eax,0x30
    22cd:	jge    2453 <get_json_token+0x2e4>
    22d3:	cmp    eax,0x2e
    22d6:	jg     2647 <get_json_token+0x4d8>
    22dc:	cmp    eax,0x2d
    22df:	jge    2453 <get_json_token+0x2e4>
    22e5:	cmp    eax,0x22
    22e8:	je     23da <get_json_token+0x26b>
    22ee:	cmp    eax,0x2c
    22f1:	je     2390 <get_json_token+0x221>
    22f7:	jmp    2647 <get_json_token+0x4d8>
    {
      case '{':
      {
        token.type = JSON_TOKEN_OPEN_CURLY_BRACE;
    22fc:	mov    DWORD PTR [rbp-0x20],0x1
        token.value.count = 1;
    2303:	mov    QWORD PTR [rbp-0x10],0x1
        parser_advance(parser, 1);
    230b:	mov    rax,QWORD PTR [rbp-0x50]
    230f:	mov    esi,0x1
    2314:	mov    rdi,rax
    2317:	call   209e <parser_advance>
      }
      break;
    231c:	jmp    2647 <get_json_token+0x4d8>
      case '}':
      {
        token.type = JSON_TOKEN_CLOSE_CURLY_BRACE;
    2321:	mov    DWORD PTR [rbp-0x20],0x2
        token.value.count = 1;
    2328:	mov    QWORD PTR [rbp-0x10],0x1
        parser_advance(parser, 1);
    2330:	mov    rax,QWORD PTR [rbp-0x50]
    2334:	mov    esi,0x1
    2339:	mov    rdi,rax
    233c:	call   209e <parser_advance>
      }
      break;
    2341:	jmp    2647 <get_json_token+0x4d8>
      case '[':
      {
        token.type = JSON_TOKEN_OPEN_SQUARE_BRACE;
    2346:	mov    DWORD PTR [rbp-0x20],0x3
        token.value.count = 1;
    234d:	mov    QWORD PTR [rbp-0x10],0x1
        parser_advance(parser, 1);
    2355:	mov    rax,QWORD PTR [rbp-0x50]
    2359:	mov    esi,0x1
    235e:	mov    rdi,rax
    2361:	call   209e <parser_advance>
      }
      break;
    2366:	jmp    2647 <get_json_token+0x4d8>
      case ']':
      {
        token.type = JSON_TOKEN_CLOSE_SQUARE_BRACE;
    236b:	mov    DWORD PTR [rbp-0x20],0x4
        token.value.count = 1;
    2372:	mov    QWORD PTR [rbp-0x10],0x1
        parser_advance(parser, 1);
    237a:	mov    rax,QWORD PTR [rbp-0x50]
    237e:	mov    esi,0x1
    2383:	mov    rdi,rax
    2386:	call   209e <parser_advance>
      }
      break;
    238b:	jmp    2647 <get_json_token+0x4d8>
      case ',':
      {
        token.type = JSON_TOKEN_COMMA;
    2390:	mov    DWORD PTR [rbp-0x20],0x5
        token.value.count = 1;
    2397:	mov    QWORD PTR [rbp-0x10],0x1
        parser_advance(parser, 1);
    239f:	mov    rax,QWORD PTR [rbp-0x50]
    23a3:	mov    esi,0x1
    23a8:	mov    rdi,rax
    23ab:	call   209e <parser_advance>
      }
      break;
    23b0:	jmp    2647 <get_json_token+0x4d8>
      case ':':
      {
        token.type = JSON_TOKEN_COLON;
    23b5:	mov    DWORD PTR [rbp-0x20],0x6
        token.value.count = 1;
    23bc:	mov    QWORD PTR [rbp-0x10],0x1
        parser_advance(parser, 1);
    23c4:	mov    rax,QWORD PTR [rbp-0x50]
    23c8:	mov    esi,0x1
    23cd:	mov    rdi,rax
    23d0:	call   209e <parser_advance>
      }
      break;
    23d5:	jmp    2647 <get_json_token+0x4d8>
      case '"':
      {
        token.type = JSON_TOKEN_STRING;
    23da:	mov    DWORD PTR [rbp-0x20],0x7

        parser_advance(parser, 1); // For the quotation mark
    23e1:	mov    rax,QWORD PTR [rbp-0x50]
    23e5:	mov    esi,0x1
    23ea:	mov    rdi,rax
    23ed:	call   209e <parser_advance>

        token.value.data = parser_at(parser); // Special case, we want the start to ignore the "
    23f2:	mov    rax,QWORD PTR [rbp-0x50]
    23f6:	mov    rdi,rax
    23f9:	call   201f <parser_at>
    23fe:	mov    QWORD PTR [rbp-0x18],rax

        // TODO: account for escaped quotes
        usize string_count = 0;
    2402:	mov    QWORD PTR [rbp-0x40],0x0
        while (*parser_at(parser) != '"')
    240a:	jmp    2422 <get_json_token+0x2b3>
        {
          string_count += 1;
    240c:	add    QWORD PTR [rbp-0x40],0x1
          parser_advance(parser, 1);
    2411:	mov    rax,QWORD PTR [rbp-0x50]
    2415:	mov    esi,0x1
    241a:	mov    rdi,rax
    241d:	call   209e <parser_advance>
        while (*parser_at(parser) != '"')
    2422:	mov    rax,QWORD PTR [rbp-0x50]
    2426:	mov    rdi,rax
    2429:	call   201f <parser_at>
    242e:	movzx  eax,BYTE PTR [rax]
    2431:	cmp    al,0x22
    2433:	jne    240c <get_json_token+0x29d>
        }
        token.value.count = string_count;
    2435:	mov    rax,QWORD PTR [rbp-0x40]
    2439:	mov    QWORD PTR [rbp-0x10],rax

        parser_advance(parser, 1); // For the other quotation mark
    243d:	mov    rax,QWORD PTR [rbp-0x50]
    2441:	mov    esi,0x1
    2446:	mov    rdi,rax
    2449:	call   209e <parser_advance>
      }
      break;
    244e:	jmp    2647 <get_json_token+0x4d8>
      case '8':
      case '9':
      case '.':
      case '-':
      {
        token.type  = JSON_TOKEN_NUMBER;
    2453:	mov    DWORD PTR [rbp-0x20],0x8

        usize digit_count = 0;
    245a:	mov    QWORD PTR [rbp-0x38],0x0
        while (is_numeric(*parser_at(parser)))
    2462:	jmp    247a <get_json_token+0x30b>
        {
          digit_count += 1;
    2464:	add    QWORD PTR [rbp-0x38],0x1
          parser_advance(parser, 1);
    2469:	mov    rax,QWORD PTR [rbp-0x50]
    246d:	mov    esi,0x1
    2472:	mov    rdi,rax
    2475:	call   209e <parser_advance>
        while (is_numeric(*parser_at(parser)))
    247a:	mov    rax,QWORD PTR [rbp-0x50]
    247e:	mov    rdi,rax
    2481:	call   201f <parser_at>
    2486:	movzx  eax,BYTE PTR [rax]
    2489:	movzx  eax,al
    248c:	mov    edi,eax
    248e:	call   213f <is_numeric>
    2493:	test   al,al
    2495:	jne    2464 <get_json_token+0x2f5>
        }
        token.value.count = digit_count;
    2497:	mov    rax,QWORD PTR [rbp-0x38]
    249b:	mov    QWORD PTR [rbp-0x10],rax
      }
      break;
    249f:	jmp    2647 <get_json_token+0x4d8>
      case 't':
      {
        String string = String("true");
    24a4:	lea    rax,[rip+0x2011]        # 44bc <_IO_stdin_used+0x4bc>
    24ab:	mov    QWORD PTR [rbp-0x30],rax
    24af:	mov    QWORD PTR [rbp-0x28],0x4
        if (parser_token_is_literal(parser, string))
    24b7:	mov    rcx,QWORD PTR [rbp-0x30]
    24bb:	mov    rdx,QWORD PTR [rbp-0x28]
    24bf:	mov    rax,QWORD PTR [rbp-0x50]
    24c3:	mov    rsi,rcx
    24c6:	mov    rdi,rax
    24c9:	call   20e4 <parser_token_is_literal>
    24ce:	test   al,al
    24d0:	je     24f4 <get_json_token+0x385>
        {
          // No 'value' for this
          token.type  = JSON_TOKEN_TRUE;
    24d2:	mov    DWORD PTR [rbp-0x20],0x9
          parser_advance(parser, string.count);
    24d9:	mov    rax,QWORD PTR [rbp-0x28]
    24dd:	mov    rdx,rax
    24e0:	mov    rax,QWORD PTR [rbp-0x50]
    24e4:	mov    rsi,rdx
    24e7:	mov    rdi,rax
    24ea:	call   209e <parser_advance>
    24ef:	jmp    2647 <get_json_token+0x4d8>
        }
        else
        {
          LOG_ERROR("Encountered unrecognized literal at byte %lu", parser->at);
    24f4:	mov    rax,QWORD PTR [rbp-0x50]
    24f8:	mov    rcx,QWORD PTR [rax+0x10]
    24fc:	lea    rdx,[rip+0x1fc5]        # 44c8 <_IO_stdin_used+0x4c8>
    2503:	lea    rax,[rip+0x1f55]        # 445f <_IO_stdin_used+0x45f>
    250a:	mov    r8,rcx
    250d:	mov    rcx,rdx
    2510:	mov    edx,0xdf
    2515:	mov    rsi,rax
    2518:	mov    edi,0x1
    251d:	mov    eax,0x0
    2522:	call   14a1 <log_message>
        }
      }
      break;
    2527:	jmp    2647 <get_json_token+0x4d8>
      case 'f':
      {
        String string = String("false");
    252c:	lea    rax,[rip+0x1fc2]        # 44f5 <_IO_stdin_used+0x4f5>
    2533:	mov    QWORD PTR [rbp-0x30],rax
    2537:	mov    QWORD PTR [rbp-0x28],0x5
        if (parser_token_is_literal(parser, string))
    253f:	mov    rcx,QWORD PTR [rbp-0x30]
    2543:	mov    rdx,QWORD PTR [rbp-0x28]
    2547:	mov    rax,QWORD PTR [rbp-0x50]
    254b:	mov    rsi,rcx
    254e:	mov    rdi,rax
    2551:	call   20e4 <parser_token_is_literal>
    2556:	test   al,al
    2558:	je     257c <get_json_token+0x40d>
        {
          // No 'value' for this
          token.type  = JSON_TOKEN_FALSE;
    255a:	mov    DWORD PTR [rbp-0x20],0xa
          parser_advance(parser, string.count);
    2561:	mov    rax,QWORD PTR [rbp-0x28]
    2565:	mov    rdx,rax
    2568:	mov    rax,QWORD PTR [rbp-0x50]
    256c:	mov    rsi,rdx
    256f:	mov    rdi,rax
    2572:	call   209e <parser_advance>
    2577:	jmp    2647 <get_json_token+0x4d8>
        }
        else
        {
          LOG_ERROR("Encountered unrecognized literal at byte %lu", parser->at);
    257c:	mov    rax,QWORD PTR [rbp-0x50]
    2580:	mov    rcx,QWORD PTR [rax+0x10]
    2584:	lea    rdx,[rip+0x1f3d]        # 44c8 <_IO_stdin_used+0x4c8>
    258b:	lea    rax,[rip+0x1ecd]        # 445f <_IO_stdin_used+0x45f>
    2592:	mov    r8,rcx
    2595:	mov    rcx,rdx
    2598:	mov    edx,0xee
    259d:	mov    rsi,rax
    25a0:	mov    edi,0x1
    25a5:	mov    eax,0x0
    25aa:	call   14a1 <log_message>
        }
      }
      break;
    25af:	jmp    2647 <get_json_token+0x4d8>
      case 'n':
      {
        String string = String("null");
    25b4:	lea    rax,[rip+0x1f40]        # 44fb <_IO_stdin_used+0x4fb>
    25bb:	mov    QWORD PTR [rbp-0x30],rax
    25bf:	mov    QWORD PTR [rbp-0x28],0x4
        if (parser_token_is_literal(parser, string))
    25c7:	mov    rcx,QWORD PTR [rbp-0x30]
    25cb:	mov    rdx,QWORD PTR [rbp-0x28]
    25cf:	mov    rax,QWORD PTR [rbp-0x50]
    25d3:	mov    rsi,rcx
    25d6:	mov    rdi,rax
    25d9:	call   20e4 <parser_token_is_literal>
    25de:	test   al,al
    25e0:	je     2601 <get_json_token+0x492>
        {
          // No 'value' for this
          token.type  = JSON_TOKEN_NULL;
    25e2:	mov    DWORD PTR [rbp-0x20],0xb
          parser_advance(parser, string.count);
    25e9:	mov    rax,QWORD PTR [rbp-0x28]
    25ed:	mov    rdx,rax
    25f0:	mov    rax,QWORD PTR [rbp-0x50]
    25f4:	mov    rsi,rdx
    25f7:	mov    rdi,rax
    25fa:	call   209e <parser_advance>
    25ff:	jmp    2647 <get_json_token+0x4d8>
        }
        else
        {
          LOG_ERROR("Encountered unrecognized literal at byte %lu", parser->at);
    2601:	mov    rax,QWORD PTR [rbp-0x50]
    2605:	mov    rcx,QWORD PTR [rax+0x10]
    2609:	lea    rdx,[rip+0x1eb8]        # 44c8 <_IO_stdin_used+0x4c8>
    2610:	lea    rax,[rip+0x1e48]        # 445f <_IO_stdin_used+0x45f>
    2617:	mov    r8,rcx
    261a:	mov    rcx,rdx
    261d:	mov    edx,0xfd
    2622:	mov    rsi,rax
    2625:	mov    edi,0x1
    262a:	mov    eax,0x0
    262f:	call   14a1 <log_message>
        }
      }
      break;
    2634:	jmp    2647 <get_json_token+0x4d8>
    }
  }
  else
  {
    // EOF, do nothing else
    parser_advance(parser, 1);
    2636:	mov    rax,QWORD PTR [rbp-0x50]
    263a:	mov    esi,0x1
    263f:	mov    rdi,rax
    2642:	call   209e <parser_advance>
  }

  return token;
    2647:	mov    rcx,QWORD PTR [rbp-0x48]
    264b:	mov    rax,QWORD PTR [rbp-0x20]
    264f:	mov    rdx,QWORD PTR [rbp-0x18]
    2653:	mov    QWORD PTR [rcx],rax
    2656:	mov    QWORD PTR [rcx+0x8],rdx
    265a:	mov    rax,QWORD PTR [rbp-0x10]
    265e:	mov    QWORD PTR [rcx+0x10],rax
}
    2662:	mov    rax,QWORD PTR [rbp-0x48]
    2666:	leave
    2667:	ret

0000000000002668 <json_token_type_is_value_type>:

b32 json_token_type_is_value_type(JSON_Token_Type type)
{
    2668:	push   rbp
    2669:	mov    rbp,rsp
    266c:	mov    DWORD PTR [rbp-0x14],edi
  b32 is_value_type = (type == JSON_TOKEN_STRING ||
                       type == JSON_TOKEN_TRUE   ||
                       type == JSON_TOKEN_FALSE  ||
                       type == JSON_TOKEN_NULL   ||
    266f:	cmp    DWORD PTR [rbp-0x14],0x7
    2673:	je     268d <json_token_type_is_value_type+0x25>
  b32 is_value_type = (type == JSON_TOKEN_STRING ||
    2675:	cmp    DWORD PTR [rbp-0x14],0x9
    2679:	je     268d <json_token_type_is_value_type+0x25>
                       type == JSON_TOKEN_TRUE   ||
    267b:	cmp    DWORD PTR [rbp-0x14],0xa
    267f:	je     268d <json_token_type_is_value_type+0x25>
                       type == JSON_TOKEN_FALSE  ||
    2681:	cmp    DWORD PTR [rbp-0x14],0xb
    2685:	je     268d <json_token_type_is_value_type+0x25>
                       type == JSON_TOKEN_NULL   ||
    2687:	cmp    DWORD PTR [rbp-0x14],0x8
    268b:	jne    2694 <json_token_type_is_value_type+0x2c>
    268d:	mov    eax,0x1
    2692:	jmp    2699 <json_token_type_is_value_type+0x31>
    2694:	mov    eax,0x0
  b32 is_value_type = (type == JSON_TOKEN_STRING ||
    2699:	mov    DWORD PTR [rbp-0x4],eax
                       type == JSON_TOKEN_NUMBER);
  return is_value_type;
    269c:	mov    eax,DWORD PTR [rbp-0x4]
}
    269f:	pop    rbp
    26a0:	ret

00000000000026a1 <parse_json_object>:
JSON_Object *parse_json_children(Arena *arena, JSON_Parser *parser,
                                 JSON_Token_Type end_token, b32 has_keys);

static
JSON_Object *parse_json_object(Arena *arena, JSON_Parser *parser, String key, JSON_Token token)
{
    26a1:	push   rbp
    26a2:	mov    rbp,rsp
    26a5:	push   rbx
    26a6:	sub    rsp,0x88
    26ad:	mov    QWORD PTR [rbp-0x78],rdi
    26b1:	mov    QWORD PTR [rbp-0x80],rsi
    26b5:	mov    QWORD PTR [rbp-0x90],rdx
    26bc:	mov    QWORD PTR [rbp-0x88],rcx
    26c3:	mov    rax,QWORD PTR fs:0x28
    26cc:	mov    QWORD PTR [rbp-0x18],rax
    26d0:	xor    eax,eax
  profile_begin_func();
    26d2:	lea    r8,[rip+0x2127]        # 4800 <__func__.4>
    26d9:	mov    r9d,0x11
    26df:	lea    rax,[rbp-0x50]
    26e3:	mov    rsi,r8
    26e6:	mov    rdx,r9
    26e9:	mov    r8d,0x0
    26ef:	mov    ecx,0x1
    26f4:	mov    rdi,rax
    26f7:	call   1e47 <__profile_begin_pass>

  JSON_Object *first_child = NULL;
    26fc:	mov    QWORD PTR [rbp-0x60],0x0

  if (token.type == JSON_TOKEN_OPEN_CURLY_BRACE)
    2704:	mov    eax,DWORD PTR [rbp+0x10]
    2707:	cmp    eax,0x1
    270a:	jne    2736 <parse_json_object+0x95>
  {
    // Normal key : value pairs
    b32 has_keys = true;
    270c:	mov    DWORD PTR [rbp-0x64],0x1
    first_child = parse_json_children(arena, parser, JSON_TOKEN_CLOSE_CURLY_BRACE, has_keys);
    2713:	mov    edx,DWORD PTR [rbp-0x64]
    2716:	mov    rsi,QWORD PTR [rbp-0x80]
    271a:	mov    rax,QWORD PTR [rbp-0x78]
    271e:	mov    ecx,edx
    2720:	mov    edx,0x2
    2725:	mov    rdi,rax
    2728:	call   2888 <parse_json_children>
    272d:	mov    QWORD PTR [rbp-0x60],rax
    2731:	jmp    27c0 <parse_json_object+0x11f>
  }
  else if (token.type == JSON_TOKEN_OPEN_SQUARE_BRACE)
    2736:	mov    eax,DWORD PTR [rbp+0x10]
    2739:	cmp    eax,0x3
    273c:	jne    2765 <parse_json_object+0xc4>
  {
    // Array, no key
    b32 has_keys = false;
    273e:	mov    DWORD PTR [rbp-0x68],0x0
    first_child = parse_json_children(arena, parser, JSON_TOKEN_CLOSE_SQUARE_BRACE, has_keys);
    2745:	mov    edx,DWORD PTR [rbp-0x68]
    2748:	mov    rsi,QWORD PTR [rbp-0x80]
    274c:	mov    rax,QWORD PTR [rbp-0x78]
    2750:	mov    ecx,edx
    2752:	mov    edx,0x4
    2757:	mov    rdi,rax
    275a:	call   2888 <parse_json_children>
    275f:	mov    QWORD PTR [rbp-0x60],rax
    2763:	jmp    27c0 <parse_json_object+0x11f>
  }
  // else it should be a leaf node containing a value only, not an array or table
  else if (json_token_type_is_value_type(token.type))
    2765:	mov    eax,DWORD PTR [rbp+0x10]
    2768:	mov    edi,eax
    276a:	call   2668 <json_token_type_is_value_type>
    276f:	test   eax,eax
    2771:	jne    27c0 <parse_json_object+0x11f>
  {
    // Do nothing, no children to parse
  }
  else
  {
    LOG_ERROR("Unexpected token type encountered while parsing json object: %s, (value = %.*s)", JSON_Token_Type_strings[token.type], token.value);
    2773:	mov    eax,DWORD PTR [rbp+0x10]
    2776:	mov    eax,eax
    2778:	lea    rdx,[rax*8+0x0]
    2780:	lea    rax,[rip+0x3959]        # 60e0 <JSON_Token_Type_strings>
    2787:	mov    rcx,QWORD PTR [rdx+rax*1]
    278b:	lea    rdx,[rip+0x1d6e]        # 4500 <_IO_stdin_used+0x500>
    2792:	lea    rax,[rip+0x1cc6]        # 445f <_IO_stdin_used+0x45f>
    2799:	push   QWORD PTR [rbp+0x20]
    279c:	push   QWORD PTR [rbp+0x18]
    279f:	mov    r8,rcx
    27a2:	mov    rcx,rdx
    27a5:	mov    edx,0x134
    27aa:	mov    rsi,rax
    27ad:	mov    edi,0x1
    27b2:	mov    eax,0x0
    27b7:	call   14a1 <log_message>
    27bc:	add    rsp,0x10
  }

  JSON_Object *result  = arena_new(arena, JSON_Object);
    27c0:	mov    rax,QWORD PTR [rbp-0x78]
    27c4:	mov    edx,0x8
    27c9:	mov    esi,0x30
    27ce:	mov    rdi,rax
    27d1:	call   17d3 <arena_alloc>
    27d6:	mov    QWORD PTR [rbp-0x58],rax
  result->key          = key;
    27da:	mov    rcx,QWORD PTR [rbp-0x58]
    27de:	mov    rax,QWORD PTR [rbp-0x90]
    27e5:	mov    rdx,QWORD PTR [rbp-0x88]
    27ec:	mov    QWORD PTR [rcx],rax
    27ef:	mov    QWORD PTR [rcx+0x8],rdx
  result->first_child  = first_child;
    27f3:	mov    rax,QWORD PTR [rbp-0x58]
    27f7:	mov    rdx,QWORD PTR [rbp-0x60]
    27fb:	mov    QWORD PTR [rax+0x20],rdx
  result->next_sibling = NULL;
    27ff:	mov    rax,QWORD PTR [rbp-0x58]
    2803:	mov    QWORD PTR [rax+0x28],0x0
  result->value        = token.value;
    280b:	mov    rcx,QWORD PTR [rbp-0x58]
    280f:	mov    rax,QWORD PTR [rbp+0x18]
    2813:	mov    rdx,QWORD PTR [rbp+0x20]
    2817:	mov    QWORD PTR [rcx+0x10],rax
    281b:	mov    QWORD PTR [rcx+0x18],rdx

  profile_end_func();
    281f:	sub    rsp,0x8
    2823:	sub    rsp,0x38
    2827:	mov    rax,rsp
    282a:	mov    rcx,QWORD PTR [rbp-0x50]
    282e:	mov    rbx,QWORD PTR [rbp-0x48]
    2832:	mov    QWORD PTR [rax],rcx
    2835:	mov    QWORD PTR [rax+0x8],rbx
    2839:	mov    rcx,QWORD PTR [rbp-0x40]
    283d:	mov    rbx,QWORD PTR [rbp-0x38]
    2841:	mov    QWORD PTR [rax+0x10],rcx
    2845:	mov    QWORD PTR [rax+0x18],rbx
    2849:	mov    rcx,QWORD PTR [rbp-0x30]
    284d:	mov    rbx,QWORD PTR [rbp-0x28]
    2851:	mov    QWORD PTR [rax+0x20],rcx
    2855:	mov    QWORD PTR [rax+0x28],rbx
    2859:	mov    rdx,QWORD PTR [rbp-0x20]
    285d:	mov    QWORD PTR [rax+0x30],rdx
    2861:	call   1f31 <__profile_end_pass>
    2866:	add    rsp,0x40

  return result;
    286a:	mov    rax,QWORD PTR [rbp-0x58]
}
    286e:	mov    rdx,QWORD PTR [rbp-0x18]
    2872:	sub    rdx,QWORD PTR fs:0x28
    287b:	je     2882 <parse_json_object+0x1e1>
    287d:	call   1060 <__stack_chk_fail@plt>
    2882:	mov    rbx,QWORD PTR [rbp-0x8]
    2886:	leave
    2887:	ret

0000000000002888 <parse_json_children>:

static
JSON_Object *parse_json_children(Arena *arena, JSON_Parser *parser,
                                 JSON_Token_Type end_token, b32 has_keys)
{
    2888:	push   rbp
    2889:	mov    rbp,rsp
    288c:	push   rbx
    288d:	sub    rsp,0x108
    2894:	mov    QWORD PTR [rbp-0xd8],rdi
    289b:	mov    QWORD PTR [rbp-0xe0],rsi
    28a2:	mov    DWORD PTR [rbp-0xe4],edx
    28a8:	mov    DWORD PTR [rbp-0xe8],ecx
    28ae:	mov    rax,QWORD PTR fs:0x28
    28b7:	mov    QWORD PTR [rbp-0x18],rax
    28bb:	xor    eax,eax
  profile_begin_func();
    28bd:	lea    r8,[rip+0x1f5c]        # 4820 <__func__.3>
    28c4:	mov    r9d,0x13
    28ca:	lea    rax,[rbp-0x50]
    28ce:	mov    rsi,r8
    28d1:	mov    rdx,r9
    28d4:	mov    r8d,0x0
    28da:	mov    ecx,0x2
    28df:	mov    rdi,rax
    28e2:	call   1e47 <__profile_begin_pass>

  JSON_Object *first_child        = NULL;
    28e7:	mov    QWORD PTR [rbp-0xc8],0x0
  JSON_Object *current_last_child = NULL;
    28f2:	mov    QWORD PTR [rbp-0xc0],0x0

  while (parser_incomplete(parser))
    28fd:	jmp    2bd6 <parse_json_children+0x34e>
  {
    JSON_Token key_token = {0};
    2902:	pxor   xmm0,xmm0
    2906:	movaps XMMWORD PTR [rbp-0xb0],xmm0
    290d:	movq   QWORD PTR [rbp-0xa0],xmm0
    JSON_Token value_token = {0};
    2915:	pxor   xmm0,xmm0
    2919:	movaps XMMWORD PTR [rbp-0x90],xmm0
    2920:	movq   QWORD PTR [rbp-0x80],xmm0

    // Grab in the key, if needed, and it's value
    if (has_keys)
    2925:	cmp    DWORD PTR [rbp-0xe8],0x0
    292c:	je     2a39 <parse_json_children+0x1b1>
    {
      key_token = get_json_token(parser);
    2932:	lea    rax,[rbp-0xb0]
    2939:	mov    rdx,QWORD PTR [rbp-0xe0]
    2940:	mov    rsi,rdx
    2943:	mov    rdi,rax
    2946:	call   216f <get_json_token>

      if (key_token.type == JSON_TOKEN_STRING)
    294b:	mov    eax,DWORD PTR [rbp-0xb0]
    2951:	cmp    eax,0x7
    2954:	jne    29d5 <parse_json_children+0x14d>
      {
        JSON_Token expect_colon = get_json_token(parser);
    2956:	lea    rax,[rbp-0x70]
    295a:	mov    rdx,QWORD PTR [rbp-0xe0]
    2961:	mov    rsi,rdx
    2964:	mov    rdi,rax
    2967:	call   216f <get_json_token>

        if (expect_colon.type == JSON_TOKEN_COLON)
    296c:	mov    eax,DWORD PTR [rbp-0x70]
    296f:	cmp    eax,0x6
    2972:	jne    2992 <parse_json_children+0x10a>
        {
          value_token = get_json_token(parser);
    2974:	lea    rax,[rbp-0x90]
    297b:	mov    rdx,QWORD PTR [rbp-0xe0]
    2982:	mov    rsi,rdx
    2985:	mov    rdi,rax
    2988:	call   216f <get_json_token>
    298d:	jmp    2a79 <parse_json_children+0x1f1>
        }
        else
        {
          LOG_ERROR("Expected colon after key: %*.s", String_Format(key_token.value));
    2992:	mov    rcx,QWORD PTR [rbp-0xa8]
    2999:	mov    rax,QWORD PTR [rbp-0xa0]
    29a0:	mov    esi,eax
    29a2:	lea    rdx,[rip+0x1ba7]        # 4550 <_IO_stdin_used+0x550>
    29a9:	lea    rax,[rip+0x1aaf]        # 445f <_IO_stdin_used+0x45f>
    29b0:	mov    r9,rcx
    29b3:	mov    r8d,esi
    29b6:	mov    rcx,rdx
    29b9:	mov    edx,0x15f
    29be:	mov    rsi,rax
    29c1:	mov    edi,0x1
    29c6:	mov    eax,0x0
    29cb:	call   14a1 <log_message>
    29d0:	jmp    2a79 <parse_json_children+0x1f1>
        }
      }
      else
      {
        LOG_ERROR("Unexpected key type: %s, (value = %*.s)", JSON_Token_Type_strings[key_token.type], String_Format(key_token.value));
    29d5:	mov    rcx,QWORD PTR [rbp-0xa8]
    29dc:	mov    rax,QWORD PTR [rbp-0xa0]
    29e3:	mov    edi,eax
    29e5:	mov    eax,DWORD PTR [rbp-0xb0]
    29eb:	mov    eax,eax
    29ed:	lea    rdx,[rax*8+0x0]
    29f5:	lea    rax,[rip+0x36e4]        # 60e0 <JSON_Token_Type_strings>
    29fc:	mov    rsi,QWORD PTR [rdx+rax*1]
    2a00:	lea    rdx,[rip+0x1b69]        # 4570 <_IO_stdin_used+0x570>
    2a07:	lea    rax,[rip+0x1a51]        # 445f <_IO_stdin_used+0x45f>
    2a0e:	sub    rsp,0x8
    2a12:	push   rcx
    2a13:	mov    r9d,edi
    2a16:	mov    r8,rsi
    2a19:	mov    rcx,rdx
    2a1c:	mov    edx,0x164
    2a21:	mov    rsi,rax
    2a24:	mov    edi,0x1
    2a29:	mov    eax,0x0
    2a2e:	call   14a1 <log_message>
    2a33:	add    rsp,0x10
    2a37:	jmp    2a79 <parse_json_children+0x1f1>
      }
    }
    // Its just values and no keys
    else
    {
      value_token = get_json_token(parser);
    2a39:	lea    rax,[rbp-0x110]
    2a40:	mov    rdx,QWORD PTR [rbp-0xe0]
    2a47:	mov    rsi,rdx
    2a4a:	mov    rdi,rax
    2a4d:	call   216f <get_json_token>
    2a52:	mov    rax,QWORD PTR [rbp-0x110]
    2a59:	mov    rdx,QWORD PTR [rbp-0x108]
    2a60:	mov    QWORD PTR [rbp-0x90],rax
    2a67:	mov    QWORD PTR [rbp-0x88],rdx
    2a6e:	mov    rax,QWORD PTR [rbp-0x100]
    2a75:	mov    QWORD PTR [rbp-0x80],rax
    }

    if (value_token.type == end_token)
    2a79:	mov    eax,DWORD PTR [rbp-0x90]
    2a7f:	cmp    DWORD PTR [rbp-0xe4],eax
    2a85:	je     2bef <parse_json_children+0x367>
    {
      // We're done
      break;
    }

    JSON_Object *object = parse_json_object(arena, parser, key_token.value, value_token);
    2a8b:	mov    rax,QWORD PTR [rbp-0xa8]
    2a92:	mov    rdx,QWORD PTR [rbp-0xa0]
    2a99:	mov    r8,QWORD PTR [rbp-0xe0]
    2aa0:	mov    rdi,QWORD PTR [rbp-0xd8]
    2aa7:	sub    rsp,0x8
    2aab:	sub    rsp,0x18
    2aaf:	mov    rsi,rsp
    2ab2:	mov    rcx,QWORD PTR [rbp-0x90]
    2ab9:	mov    rbx,QWORD PTR [rbp-0x88]
    2ac0:	mov    QWORD PTR [rsi],rcx
    2ac3:	mov    QWORD PTR [rsi+0x8],rbx
    2ac7:	mov    rcx,QWORD PTR [rbp-0x80]
    2acb:	mov    QWORD PTR [rsi+0x10],rcx
    2acf:	mov    rcx,rdx
    2ad2:	mov    rdx,rax
    2ad5:	mov    rsi,r8
    2ad8:	call   26a1 <parse_json_object>
    2add:	add    rsp,0x20
    2ae1:	mov    QWORD PTR [rbp-0xb8],rax
    if (object)
    2ae8:	cmp    QWORD PTR [rbp-0xb8],0x0
    2af0:	je     2b3a <parse_json_children+0x2b2>
    {
      // Create links
      if (!first_child)
    2af2:	cmp    QWORD PTR [rbp-0xc8],0x0
    2afa:	jne    2b1a <parse_json_children+0x292>
      {
        first_child        = object;
    2afc:	mov    rax,QWORD PTR [rbp-0xb8]
    2b03:	mov    QWORD PTR [rbp-0xc8],rax
        current_last_child = object;
    2b0a:	mov    rax,QWORD PTR [rbp-0xb8]
    2b11:	mov    QWORD PTR [rbp-0xc0],rax
    2b18:	jmp    2b3a <parse_json_children+0x2b2>
      }
      else
      {
        current_last_child->next_sibling = object;
    2b1a:	mov    rax,QWORD PTR [rbp-0xc0]
    2b21:	mov    rdx,QWORD PTR [rbp-0xb8]
    2b28:	mov    QWORD PTR [rax+0x28],rdx
        current_last_child = object;
    2b2c:	mov    rax,QWORD PTR [rbp-0xb8]
    2b33:	mov    QWORD PTR [rbp-0xc0],rax
      }
    }

    // We either want the end, or a comma
    JSON_Token expect_comma_or_end = get_json_token(parser);
    2b3a:	lea    rax,[rbp-0x70]
    2b3e:	mov    rdx,QWORD PTR [rbp-0xe0]
    2b45:	mov    rsi,rdx
    2b48:	mov    rdi,rax
    2b4b:	call   216f <get_json_token>
    if (expect_comma_or_end.type == end_token)
    2b50:	mov    eax,DWORD PTR [rbp-0x70]
    2b53:	cmp    DWORD PTR [rbp-0xe4],eax
    2b59:	je     2bf2 <parse_json_children+0x36a>
    {
      break;
    }
    else if (expect_comma_or_end.type != JSON_TOKEN_COMMA)
    2b5f:	mov    eax,DWORD PTR [rbp-0x70]
    2b62:	cmp    eax,0x5
    2b65:	je     2bd6 <parse_json_children+0x34e>
    {
      LOG_ERROR("Expected comma, parsed Token :: Type = %s, Value = '%.*s', \n", JSON_Token_Type_strings[expect_comma_or_end.type],
    2b67:	mov    r8,QWORD PTR [rbp-0x68]
    2b6b:	mov    rax,QWORD PTR [rbp-0x60]
    2b6f:	mov    r9d,eax
    2b72:	mov    eax,DWORD PTR [rbp-0x70]
    2b75:	mov    eax,eax
    2b77:	lea    rdx,[rax*8+0x0]
    2b7f:	lea    rax,[rip+0x355a]        # 60e0 <JSON_Token_Type_strings>
    2b86:	mov    r10,QWORD PTR [rdx+rax*1]
    2b8a:	lea    rdi,[rip+0x1a07]        # 4598 <_IO_stdin_used+0x598>
    2b91:	lea    rsi,[rip+0x18c7]        # 445f <_IO_stdin_used+0x45f>
    2b98:	sub    rsp,0x18
    2b9c:	mov    rcx,rsp
    2b9f:	mov    rax,QWORD PTR [rbp-0x70]
    2ba3:	mov    rdx,QWORD PTR [rbp-0x68]
    2ba7:	mov    QWORD PTR [rcx],rax
    2baa:	mov    QWORD PTR [rcx+0x8],rdx
    2bae:	mov    rax,QWORD PTR [rbp-0x60]
    2bb2:	mov    QWORD PTR [rcx+0x10],rax
    2bb6:	push   r8
    2bb8:	mov    r8,r10
    2bbb:	mov    rcx,rdi
    2bbe:	mov    edx,0x18b
    2bc3:	mov    edi,0x1
    2bc8:	mov    eax,0x0
    2bcd:	call   14a1 <log_message>
    2bd2:	add    rsp,0x20
  while (parser_incomplete(parser))
    2bd6:	mov    rax,QWORD PTR [rbp-0xe0]
    2bdd:	mov    rdi,rax
    2be0:	call   20c4 <parser_incomplete>
    2be5:	test   al,al
    2be7:	jne    2902 <parse_json_children+0x7a>
    2bed:	jmp    2bf3 <parse_json_children+0x36b>
      break;
    2bef:	nop
    2bf0:	jmp    2bf3 <parse_json_children+0x36b>
      break;
    2bf2:	nop
                String_Format(expect_comma_or_end.value), expect_comma_or_end);
    }
  }

  profile_end_func();
    2bf3:	sub    rsp,0x8
    2bf7:	sub    rsp,0x38
    2bfb:	mov    rax,rsp
    2bfe:	mov    rcx,QWORD PTR [rbp-0x50]
    2c02:	mov    rbx,QWORD PTR [rbp-0x48]
    2c06:	mov    QWORD PTR [rax],rcx
    2c09:	mov    QWORD PTR [rax+0x8],rbx
    2c0d:	mov    rcx,QWORD PTR [rbp-0x40]
    2c11:	mov    rbx,QWORD PTR [rbp-0x38]
    2c15:	mov    QWORD PTR [rax+0x10],rcx
    2c19:	mov    QWORD PTR [rax+0x18],rbx
    2c1d:	mov    rcx,QWORD PTR [rbp-0x30]
    2c21:	mov    rbx,QWORD PTR [rbp-0x28]
    2c25:	mov    QWORD PTR [rax+0x20],rcx
    2c29:	mov    QWORD PTR [rax+0x28],rbx
    2c2d:	mov    rdx,QWORD PTR [rbp-0x20]
    2c31:	mov    QWORD PTR [rax+0x30],rdx
    2c35:	call   1f31 <__profile_end_pass>
    2c3a:	add    rsp,0x40

  return first_child;
    2c3e:	mov    rax,QWORD PTR [rbp-0xc8]
}
    2c45:	mov    rdx,QWORD PTR [rbp-0x18]
    2c49:	sub    rdx,QWORD PTR fs:0x28
    2c52:	je     2c59 <parse_json_children+0x3d1>
    2c54:	call   1060 <__stack_chk_fail@plt>
    2c59:	mov    rbx,QWORD PTR [rbp-0x8]
    2c5d:	leave
    2c5e:	ret

0000000000002c5f <parse_json>:

// Returns the very first object
static
JSON_Object *parse_json(Arena *arena, String source)
{
    2c5f:	push   rbp
    2c60:	mov    rbp,rsp
    2c63:	push   rbx
    2c64:	sub    rsp,0xb8
    2c6b:	mov    QWORD PTR [rbp-0xa8],rdi
    2c72:	mov    rax,rsi
    2c75:	mov    rsi,rdx
    2c78:	mov    rax,rax
    2c7b:	mov    edx,0x0
    2c80:	mov    rdx,rsi
    2c83:	mov    QWORD PTR [rbp-0xc0],rax
    2c8a:	mov    QWORD PTR [rbp-0xb8],rdx
    2c91:	mov    rax,QWORD PTR fs:0x28
    2c9a:	mov    QWORD PTR [rbp-0x18],rax
    2c9e:	xor    eax,eax
  profile_begin_func();
    2ca0:	lea    rcx,[rip+0x1b91]        # 4838 <__func__.2>
    2ca7:	mov    ebx,0xa
    2cac:	lea    rax,[rbp-0x50]
    2cb0:	mov    rsi,rcx
    2cb3:	mov    rdx,rbx
    2cb6:	mov    r8d,0x0
    2cbc:	mov    ecx,0x3
    2cc1:	mov    rdi,rax
    2cc4:	call   1e47 <__profile_begin_pass>

  JSON_Parser parser =
    2cc9:	mov    rax,QWORD PTR [rbp-0xc0]
    2cd0:	mov    rdx,QWORD PTR [rbp-0xb8]
    2cd7:	mov    QWORD PTR [rbp-0x90],rax
